



  PMOW   BCD 06/25/69 2048.1    6769         00000    
1            FAP                                                                                 PAGE 1     
                  
                              *M1416 3162  M. WAGNER .... WRITE-AROUNDS FOR OLD DISK ENTRIES  PMTRAP  
                              *      ALTERED TO SAVE AC AND MQ         EMK     AUG 65     
                       00022         ENTRY   .WRITE        .WRITE 
                       00054         ENTRY   .DUMP         .DUMP  
                       00060         ENTRY   .LOAD         .LOAD  
                       00114         ENTRY   .ASIGN        .ASIGN 
                       00117         ENTRY   .APEND        .APEND 
                       00122         ENTRY   .RELRW        .RELRW 
                       00125         ENTRY   .SEEK         .SEEK  
                       00200         ENTRY   .READK        .READK 
                       00265         ENTRY   .FSTAT        .FSTAT 
                       00324         ENTRY   .DLETE        .DLETE AND .ERASE  
                       00327         ENTRY   .FILE         .FILE AND .ENDRD   
                       00343         ENTRY   .RENAM        .RENAM 
                       00375         ENTRY   .RESET   
                       00376         ENTRY   .UPDAT        .UPDAT 
                       00327         ENTRY   .ENDRD        .ENDRD 
                       00324         ENTRY   .ERASE        .ERASE 
                  
                                     EXTERN  OPEN,BUFFER,RDFILE,WRFILE,CLOSE,FSTATE 
                                     EXTERN  CHFILE,UPDATE,DELFIL,RESETF,RDWAIT,WRWAIT    
                                     EXTERN  IODIAG,PRNTER,EXIT,WRFLX   
                              MADARG MACRO   X  
                                     IRP     X  
                                     PTH     X  
                                     IRP  
                              MADARG END  
                  
                              OPEN   MACRO   STATUS,F1,F2,MODE,DEVICE   
                                     TSX     OPEN,4   
                                     MADARG  (STATUS,F1,F2,MODE,DEVICE) 
                              OPEN   END  
                  
                              RDFILE MACRO   F1,F2,L,E
                                     TSX     RDFILE,4 
                                     MADARG  (F1,F2,L)
                                     TIX     E  
                              RDFILE END  
                  
                              WRFILE MACRO   F1,F2,L,E
                                     TSX     WRFILE,4 
                                     MADARG  (F1,F2,L)
                                     TIX     E  
                              WRFILE END  
                  
                              FCHECK MACRO   F1,F2,FINISH   
                                     TSX     FCHECK,4 
                                     MADARG  (F1,F2,FINISH) 
                              FCHECK END  
                  
                              BUFFER MACRO   F1,F2,ARRAY    
                                     TSX     BUFFER,4 
                                     MADARG  (F1,F2)  
                                     TIX     ARRAY    
                              BUFFER END  
1            FAP                                                                                 PAGE 2     
                  
                              CLOSE  MACRO   F1,F2    
                                     TSX     CLOSE,4  
                                     MADARG  (F1,F2)  
                              CLOSE  END  
                  
                              CHFILE MACRO   F1,F2,MODE,G1,G2     
                                     TSX     CHFILE,4 
                                     MADARG  (F1,F2,MODE,G1,G2)   
                              CHFILE END  
                  
                              DELFIL MACRO   F1,F2    
                                     TSX     DELFIL,4 
                                     MADARG  (F1,F2)  
                              DELFIL END  
                  
                              FSTATE MACRO   F1,F2,ARRAY    
                                     TSX     FSTATE,4 
                                     MADARG  (F1,F2)  
                                     TIX     ARRAY    
                              FSTATE END  
                  
                              ATTACH MACRO   PROB,PROG
                                     TSX     ATTACH,4 
                                     MADARG  (PROB,PROG)    
                              ATTACH END  
                  
 M                            UPDATE MACRO                                                                        
                                     TSX     UPDATE,4 
                              UPDATE END  
                  
                              SETAB  MACRO   CALLER,BUFFER,MEMORY 
                                     TSX     SETAB,4  
                                     MADARG  (CALLER,BUFFER,MEMORY)     
                              SETAB  END  
                  
                              SETUSR MACRO   USER     
                                     TSX     SETUSR,4 
                                     MADARG  USER     
                              SETUSR END  
                  
                              ************************************************************************
                  
                                                           USER DISK SUBROUTINES    
                  
                  
        TRANSFER VECTOR 
      00000  464725456060     OPEN  
      00001  226426262551     BUFFER
      00002  512426314325     RDFILE
      00003  665126314325     WRFILE
      00004  234346622560     CLOSE 
      00005  266263216325     FSTATE
      00006  233026314325     CHFILE
      00007  644724216325     UPDATE
      00010  242543263143     DELFIL
      00011  512562256326     RESETF
1            FAP                                                                                 PAGE 3     
                  
      00012  512466213163     RDWAIT
      00013  665166213163     WRWAIT
      00014  314624312127     IODIAG
      00015  475145632551     PRNTER
      00016  256731636060     EXIT  
      00017  665126436760     WRFLX 
                  
            LINKAGE DIRECTOR  
      00020  000000000000     
      00021  336651316325     
                  
      00022  0634 00 4 00417  .WRITE SXA     IR4,4         USER SUBROUTINE TO WRITE ON DISK     
      00023  0074 00 4 00513         TSX     CKDISK,4 
      00024 -0534 00 4 00550         LXD     1C4,4         SET RELATIVE ADDRESS, IF ANY   
      00025  0634 00 4 00604         SXA     L,4           ..     
      00026 -0500 00 0 00551         CAL     2C4           PZE FIRST,,N 
      00027  0621 00 0 00040         STA     (WRT1         SET INTO CALLING SEQUENCE
      00030  0622 00 0 00040         STD     (WRT1         GET WORD COUNT     
      00031  0441 00 0 00552         LDI     3C4           POSSIBLE ERROR RETURN    
      00032  0074 00 4 00423         TSX     CKERTN,4      SET UP ERROR RETURN IF ANY     
      00033 -0620 00 0 00043         SLQ     WRT4          ..     
      00034  0074 00 4 00013         TSX     WRWAIT,4      GO AND WRITE AND WAIT    
      00035                          MADARG  (FILNAM,FILNAM+1,L)  ..    
      00040  3 00000 0 00000  (WRT1  PTH     **,,**        .. ARGUMENT OF .WRITE    
      00041                          MADARG  (WRT2,OMIT)    .. POSSIBLE EOF AND ERROR RETURNS   
      00043                   WRT4   MADARG  DERTN         ..     
      00044  0020 00 0 00401         TRA     CKRTN3        CHECK FOR CORRECT RETURN 
      00045 -0500 00 0 00047  WRT2   CAL     WRT3          HERE ON EOF  
      00046  0020 00 0 00432         TRA     FAKERR        .. FAKE ERROR FOR .WRITE COMPATIBILITY     
      00047  0 00001 0 00050  WRT3   PZE     *+1,,1   
      00050  336651316325            BCI     4,.WRITE RELLOC TOO LARGE      ERROR COM     
      00051  605125434346     
      00052  236063464660     
      00053  432151272560     
                  
      00054 -0625 00 0 00564  .DUMP  STL     LOADSW        USER SUBROUTINE TO DUMP CORE ONTO DISK     
      00055  0634 00 4 00417         SXA     IR4,4         ..     
      00056  0774 00 4 00604         AXT     W+1,4         SIMULATE .ASIGN FIRST    
      00057  0020 00 0 00130         TRA     (SEEK1+1 
                  
      00060 -0625 00 0 00564  .LOAD  STL     LOADSW        USER SUBROUTINE TO LOAD FROM A DISK FILE   
      00061  0634 00 4 00417         SXA     IR4,4    
      00062  0774 00 4 00601         AXT     R,4           FIRST, SIMULATE SEEK     
      00063  0020 00 0 00130         TRA     (SEEK1+1 
                  
      00064 -0500 00 0 00551  (LODA  CAL     2C4           RETURN FROM OPENING FILE 
      00065  0621 00 0 00103         STA     (LODC         SET UP CORE A CALL TO READ/WRITE     
      00066  0622 00 0 00103         STD     (LODC         GET WORD COUNT     
      00067 -0734 00 4 00000         PDX     0,4           SET TO RETURN COUNT OF WORDS READ/WRITTEN  
      00070  0754 00 4 00000         PXA     0,4           .. IN LOGICAL AC   
      00071  0602 00 0 00575         SLW     LAC           ..     
      00072  0600 00 0 00576         STZ     ACSQ     
      00073  0774 00 4 00002         AXT     RDFILE,4      .. XR4 TO RDFILE/WRFILE  
      00074 -3 00601 2 00076         TXL     *+2,2,R       SKIP IF THIS WAS A CALL TO LOAD
      00075  0774 00 4 00003         AXT     WRFILE,4      FIX UP XR4 IF A DUMP     
      00076  0634 00 4 00077         SXA     (LODB,4       SET UP CALL  
1            FAP                                                                                 PAGE 4     
                  
      00077  0074 00 4 00002  (LODB  TSX     RDFILE,4      RDFILE/WRFILE
      00100                          MADARG  (FILNAM,FILNAM+1,Q0)  ..   
      00103  3 00000 0 00000  (LODC  PTH     **,,**   
      00104                          MADARG  (LODEOF,LAC)  .. POSSIBLE ERROR RETURN 
      00106                   SEK4   MADARG  DERTN         ..     
      00107                   LODEOF CLOSE   FILNAM,FILNAM+1    CLOSE FILE    
      00112                   SEK5   MADARG  DERTN         .. POSSIBLE ERROR RETURN 
      00113  0020 00 0 00401         TRA     CKRTN3        AND GO RETURN 3 OR 4,4   
                  
      00114  0634 00 4 00417  .ASIGN SXA     IR4,4         USER SUBROUTINE TO ASSIGN A NEW FILE 
      00115  0774 00 4 00604         AXT     W+1,4    
      00116  0020 00 0 00127         TRA     (SEEK1   
                  
      00117  0634 00 4 00417  .APEND SXA     IR4,4    
      00120  0774 00 4 00603         AXT     W,4           USER SUBROUTINE TO ADD DATA TO OLD FILE    
      00121  0020 00 0 00127         TRA     (SEEK1   
                  
      00122  0634 00 4 00417  .RELRW SXA     IR4,4    
      00123  0774 00 4 00602         AXT     RW,4          USER SUBROUTINE TO OPEN A FILE FOR RELATIVE
      00124  0020 00 0 00127         TRA     (SEEK1   
                  
      00125  0634 00 4 00417  .SEEK  SXA     IR4,4    
      00126  0774 00 4 00601         AXT     R,4           USER SUBROUTINE TO SEEK A DISK FILE  
                  
      00127  0600 00 0 00564  (SEEK1 STZ     LOADSW        ZERO LOAD/DUMP SWITCH    
      00130  0634 00 4 00143         SXA     SEEK2,4  
      00131  0074 00 4 00513         TSX     CKDISK,4      SET UP AND CHECK DISK CALL     
      00132 -0500 00 0 00551         CAL     2C4           PZE BUF1,,BUF2  (BUF2 MAY BE MISSING)
      00133  0621 00 0 00175         STA     (ASSN+3       SET INTO CALLING SEQ.    
      00134  0441 00 0 00552         LDI     3C4           CHECK FOR ERROR RETURN   
      00135  0074 00 4 00423         TSX     CKERTN,4      ..     
      00136 -0620 00 0 00157         SLQ     SEK1          ..     
      00137 -0620 00 0 00167         SLQ     SEK2          ..     
      00140 -0620 00 0 00176         SLQ     SEK3          ..     
      00141 -0620 00 0 00106         SLQ     SEK4          ..     
      00142 -0620 00 0 00112         SLQ     SEK5          ..     
      00143  0774 00 2 00000  SEEK2  AXT     **,2     
      00144 -3 00602 2 00160         TXL     (SEK,2,RW     SKIP IF .SEEK OR .RELRW  
      00145 -3 00603 2 00153         TXL     APEND,2,W
      00146                          DELFIL  FILNAM,FILNAM+1  DELETE PREVIOUS COPIES OF FILE, FOR ASIG
      00151                          MADARG  *+1           .. IGNORE ERROR RETURN   
      00152  1 77777 2 00160         TXI     (SEK,2,-1     GO TO OPEN, WITH STATUS = W    
      00153                   APEND  FSTATE  FILNAM,FILNAM+1,(DBUF1,,Q0)    CHECK FOR FILE
      00157                   SEK1   MADARG  DERTN         .. POSSIBLE ERROR RETURN 
      00160  0634 00 2 00162  (SEK   SXA     *+2,2         SET UP STATUS
      00161                          OPEN    **,FILNAM,FILNAM+1,MODE,=2    OPEN FILE
      00167                   SEK2   MADARG  DERTN         .. POSSIBLE ERROR RETURN 
      00170  0520 00 0 00564         ZET     LOADSW   
      00171  0020 00 0 00064         TRA     (LODA         REQUEST WAS FOR DUMP/LOAD
      00172                   (ASSN  BUFFER  FILNAM,FILNAM+1,(**,,BUFFL)   ASSIGN BUFFER  
      00176                   SEK3   MADARG  DERTN         .. POSSIBLE ERROR RETURN 
      00177  0020 00 0 00401         TRA     CKRTN3        GO TO RETURN 3 OR 4,4    
                  
      00200  0634 00 4 00417  .READK SXA     IR4,4    
      00201  0074 00 4 00513         TSX     CKDISK,4      USER SUBROUTINE TO READ FROM A DISK FILE   
      00202 -0534 00 4 00550         LXD     1C4,4         GET RELATIVE ADDRESS, IF ANY   
1            FAP                                                                                 PAGE 5     
                  
      00203  0634 00 4 00604         SXA     L,4
      00204 -0500 00 0 00552         CAL     3C4           PZE EOFLOC (EOF RETURN)  
      00205  0621 00 0 00240         STA     RDEOF1        SAVE IN CASE OF END-OF-FILE RETURN   
      00206  0441 00 0 00553         LDI     4C4           CHECK FOR ERROR RETURN   
      00207  0074 00 4 00423         TSX     CKERTN,4      ..     
      00210 -0620 00 0 00231         SLQ     (RED6         ..     
      00211 -0620 00 0 00237         SLQ     (RED7         ..     
      00212 -0620 00 0 00250         SLQ     (RED8         ..     
      00213 -0620 00 0 00263         SLQ     (RED9         ..     
      00214 -0500 00 0 00551         CAL     2C4           PZE FIRST,,N 
      00215  0044 00 0 00000         PAI                   .. TO SI     
      00216  0054 00  700000         RFT     700000        IS THIS A NON-TRANSMIT CALL    
      00217  0020 00 0 00243         TRA     (RED1         YES, SIMULATE WITH NEW ROUTINES
      00220  0621 00 0 00226         STA     (RED3         SET INTO CALLING SEQUENCE
      00221  0622 00 0 00226         STD     (RED3         ..     
      00222  0074 00 4 00012         TSX     RDWAIT,4 
      00223                          MADARG  (FILNAM,FILNAM+1,L)  
      00226  3 00000 0 00000  (RED3  PTH     **,,**        .. .READK ARGUMENTS
      00227                          MADARG  (RDEOF,LAC)  .. POSSIBLE EOF, ERROR    
      00231                   (RED6  MADARG  DERTN         ..     
                       00232  (RED4  EQU     *  
      00232 -0774 00 2 00005         AXC     5,2           RETURN 4 OR 5,4    
      00233  0020 00 0 00402         TRA     CKRTNX        ..     
                  
                       00234  RDEOF  EQU     *             HERE ON END OF FILE
      00234                          CLOSE   FILNAM,FILNAM+1   CLOSE FILE ON EOF    
      00237                   (RED7  MADARG  DERTN         .. POSSIBLE ERROR RETURN 
      00240  0774 00 4 00000  RDEOF1 AXT     **,4          USER EOF RETURN    
      00241  0634 00 4 00600         SXA     ILC,4         SET UP USER EOF RETURN   
      00242  0020 00 0 00407         TRA     RETRNX        AND RETURN TO USER 
                  
      00243  0622 00 0 00252  (RED1  STD     (RED5         SAVE WORD COUNT TO SKIP  
                                                           SIMULATE NON-TRANSMIT READ     
      00244                          FSTATE  FILNAM,FILNAM+1,(DBUF1,,Q5)
      00250                   (RED8  MADARG  DERTN         .. POSSIBLE ERROR RETURN 
      00251  0534 00 4 00572         LXA     DBUF1+4,4     FIFTH WORD IS NEXT WORD TO BE READ   
      00252  1 00000 4 00253  (RED5  TXI     *+1,4,**      GET NEXT WORD TO BE READ 
      00253  0634 00 4 00604         SXA     L,4           SET UP POINTER     
      00254  0074 00 4 00012         TSX     RDWAIT,4      POSITION FILE
      00255                          MADARG  (FILNAM,FILNAM+1,L,L)    .. BY READING 0 WORDS     
      00261                          MADARG  (RDEOF,LAC)   .. POSSIBLE EOF AND ERROR RETURNS    
      00263                   (RED9  MADARG  DERTN         ..     
      00264  0020 00 0 00232         TRA     (RED4         NORMAL RETURN
                  
                  
      00265  0634 00 4 00417  .FSTAT SXA     IR4,4    
      00266  0074 00 4 00513         TSX     CKDISK,4      USER SUBROUTINE TO GET STATUS OF A FILE    
      00267  0441 00 0 00551         LDI     2C4           CHECK FOR ERROR RETURN   
      00270  0074 00 4 00423         TSX     CKERTN,4      ..     
      00271 -0620 00 0 00276         SLQ     FSTA3         ..     
      00272                          FSTATE  FILNAM,FILNAM+1,(TEMP,,Q3)    GET FILE STATUS
      00276                   FSTA3  MADARG  DERTN         .. POSSIBLE ERROR RETURN 
      00277  0500 00 0 00570         CLA     TEMP+2        GET FILE STATUS    
      00300  0402 00 0 00606         SUB     Q3            .. SEE IF ACTIVE WRITE   
      00301  0100 00 0 00315         TZE     FSTA1         .. IF SO, FAKE ERROR FOR COMPATIBILITY     
      00302 -0500 00 0 00566         CAL     TEMP          WORD COUNT   
1            FAP                                                                                 PAGE 6     
                  
      00303  0602 00 0 00575         SLW     LAC
      00304  0600 00 0 00576         STZ     ACSQ     
      00305  0441 00 0 00567         LDI     TEMP+1        CONVERT TO OLD .FSTAT MODE     
      00306 -0500 00 0 00466         CAL     PON           IF CAN'T RECOGNIZE MODE, MAKE IT PERMANENT 
      00307  0054 00  000001         RFT     1  
      00310 -0754 00 0 00000         ZAC                   .. IF TEMPORARY    
      00311  0054 00  000104         RFT     104
      00312 -0500 00 0 00456         CAL     PTW           .. IF READ-ONLY PROTECTED
      00313  0630 00 0 00575         STP     LAC           ADD MODE TO LAC    
      00314  0020 00 0 00377         TRA     CKRTN2        GO TO RETURN 2 OR 3,4    
      00315 -0500 00 0 00317  FSTA1  CAL     FSTA2         HERE TO SET UP FAKE ERROR
      00316  0020 00 0 00432         TRA     FAKERR        .. FOR .FSTAT OF FILE IN W STATUS    
      00317  0 00005 0 00320  FSTA2  PZE     *+1,,5   
      00320  332662632163            BCI     4,.FSTAT  FILE NOT FOUND   
      00321  606026314325     
      00322  604546636026     
      00323  466445246060     
                  
                       00324  .ERASE EQU     *  
      00324  0634 00 4 00417  .DLETE SXA     IR4,4    
      00325  0774 00 4 00010         AXT     DELFIL,4      USER SUBROUTINE TO DELETE A FILE FROM DISK 
      00326  0020 00 0 00331         TRA     (FILE    
                  
                       00327  .ENDRD EQU     *  
      00327  0634 00 4 00417  .FILE  SXA     IR4,4    
      00330  0774 00 4 00004         AXT     CLOSE,4       USER SUBROUTINE TO END A READ OR WRITE FILE
      00331  0634 00 4 00336  (FILE  SXA     (FIL,4        SET UP CALL TO .ENDRD, .DLETE OR .FILE     
      00332  0074 00 4 00513         TSX     CKDISK,4      SET UP AND CHECK DISK CALL     
      00333  0441 00 0 00551         LDI     2C4           CHECK FOR ERROR RETURN   
      00334  0074 00 4 00423         TSX     CKERTN,4      ..     
      00335 -0620 00 0 00341         SLQ     (FIL1         ..     
      00336  0074 00 4 00000  (FIL   TSX     **,4          TSX CLOSE OR DELETE,4    
      00337                          MADARG  (FILNAM,FILNAM+1)  ..
      00341                   (FIL1  MADARG  DERTN         .. POSSIBLE ERROR RETURN 
      00342  0020 00 0 00377         TRA     CKRTN2        RETURN 2 OR 3,4    
                  
      00343  0634 00 4 00417  .RENAM SXA     IR4,4    
      00344  0074 00 4 00513         TSX     CKDISK,4      USER SUBROUTINE TO RENAME A DISK FILE
      00345 -0535 00 4 00550         LDC     1C4,4    
      00346 -0500 00 4 00000         CAL     0,4           ..     
      00347  0560 00 4 00001         LDQ     1,4           ..     
      00350  0602 00 0 00566         SLW     TEMP          SAVE IN MEMORY A   
      00351 -0600 00 0 00567         STQ     TEMP+1        ..     
      00352  0322 00 0 00554         ERA     FILNAM        IS FIRST NAME THE SAME   
      00353 -0100 00 0 00362         TNZ     RENAM1        .. NO  
      00354 -0130 00 0 00000         XCL  
      00355  0322 00 0 00555         ERA     FILNAM+1      .. YES, TEST ON SECOND NAME    
      00356 -0100 00 0 00362         TNZ     RENAM1   
      00357 -0760 00 0 00003         SSM  
      00360  0601 00 0 00554         STO     FILNAM        OMIT EXTRA ARGUMENTS     
      00361  0601 00 0 00555         STO     FILNAM+1      ..     
      00362  0441 00 0 00551  RENAM1 LDI     2C4           CHECK FOR ERROR RETURN   
      00363  0074 00 4 00423         TSX     CKERTN,4      ..     
      00364 -0620 00 0 00373         SLQ     RENAM2        ..     
      00365                          CHFILE  TEMP,TEMP+1,MODE,FILNAM,FILNAM+1   RENAME USER FILE
      00373                   RENAM2 MADARG  DERTN         .. POSSIBLE ERROR RETURN 
1            FAP                                                                                 PAGE 7     
                  
      00374  0020 00 0 00377         TRA     CKRTN2   
                  
      00375  0020 00 0 00011  .RESET TRA     RESETF        .. RESET USER FILE DIRECTORY   
                  
      00376  0020 00 0 00007  .UPDAT TRA     UPDATE        UPDATE USER FILE DIRECTORY     
                  
                  
      00377 -0774 00 2 00003  CKRTN2 AXC     3,2           RETURN 2 OR 3,4    
      00400  0020 00 0 00402         TRA     CKRTNX   
      00401 -0774 00 2 00004  CKRTN3 AXC     4,2           RETURN 3 OR 4,4    
      00402  0441 00 2 00546  CKRTNX LDI     1C4-2,2       GET POSSIBLE ERROR RETURN
      00403 -0054 00  377777         LFT     377777        IS IT  
      00404  1 00001 2 00405         TXI     *+1,2,1       NO..ADJUST RETURN POINTER
      00405  0636 00 2 00422         SCA     RET,2         SET UP RETURN
      00406  0600 00 0 00600         STZ     ILC           .. INDICATE NOT ALREADY SET UP 
                  
      00407  0560 00 0 00576  RETRNX LDQ     ACSQ     
      00410  0441 00 0 00574         LDI     IND
      00411  0763 00 0 00001         LLS     1             LAC MAY HAVE BEEN CHANGED
      00412  0767 00 0 00044         ALS     36            RESTORE ORIGINAL 'Q' BIT 
      00413  0560 00 0 00577         LDQ     MQ            ..     
      00414 -0501 00 0 00575         ORA     LAC           ..     
      00415  0774 00 1 00000  IR1    AXT     **,1          ..     
      00416  0774 00 2 00000  IR2    AXT     **,2          ..     
      00417  0774 00 4 00000  IR4    AXT     **,4          ..     
      00420  0520 00 0 00600         ZET     ILC           AND RETURN TO CALLER     
      00421  0020 60 0 00600         TRA*    ILC
      00422  0020 00 4 00000  RET    TRA     **,4     
                  
                                             CKERTN ..... CHECK FOR POSSIBLE ERROR RETURN IN DISK CALL
                  
      00423  0600 00 0 00464  CKERTN STZ     ERRET         IN CASE OF NO ERROR RETURN     
      00424  0560 00 0 00442         LDQ     NOP
      00425 -0054 00  377777         LFT     377777        HAS AN ERROR RETURN BEEN PROVIDED    
      00426  0020 00 4 00001         TRA     1,4           NO, RETURN   
      00427  0560 00 0 00441         LDQ     PTH           YES    
      00430  0604 00 0 00464         STI     ERRET         SET UP FOR POSSIBLE ERROR
      00431  0020 00 4 00001         TRA     1,4           RETURN 
                  
      00432  0621 00 0 00437  FAKERR STA     FAKER1        SAVE LOCATION OF ERROR COMMENT 
      00433  0771 00 0 00022         ARS     18            SHIFT OVER OLD ERROR CODE
      00434  0520 00 0 00464         ZET     ERRET         WAS ERROR RETURN PROVIDED
      00435  0020 00 0 00460         TRA     DERTB2        .. YES 
      00436  0074 00 4 00017         TSX     WRFLX,4       ..NO, PRINT COMMENT
      00437  0 00004 0 00000  FAKER1 PZE     **,,4    
      00440  0020 00 0 00016         TRA     EXIT     
      00441                   PTH    MADARG  0  
      00442  0761 00 0 00000  NOP    NOP  
                  
                       00443  DERTN  EQU     *  
      00443  0500 00 0 00464         CLA     ERRET         HERE WHEN ERROR RETURN PROVIDED
      00444 -0120 00 0 00446         TMI     *+2           PZE ERROR RETURN MEANS PRINT DIAG    
      00445  0074 00 4 00015         TSX     PRNTER,4      ..     
      00446  0074 00 4 00014         TSX     IODIAG,4      OTHERWISE, GET IO DIAGNOSTIC   
      00447  3 00003 0 00554         PTH     FILNAM,,3     ..     
      00450 -0500 00 0 00555         CAL     FILNAM+1      GET NAME OF DISK CALL    
1            FAP                                                                                 PAGE 8     
                  
      00451  0534 00 2 00556         LXA     FILNAM+2,2    GET ERROR CODE     
      00452  0774 00 4 00012         AXT     DERTC2-DERTC1,4
      00453 -0340 00 4 00477         LAS     DERTC2,4      CHECK FOR SPECIAL ERROR RETURNS
      00454  0020 00 0 00456         TRA     *+2           ..     
      00455  0020 00 4 00500         TRA     DERTC2+1,4    .. FOUND     
      00456  2 00002 4 00453  PTW    TIX     *-3,4,2       ..     
      00457 -0500 00 0 00610  DERTB1 CAL     =1            IF NOT SPECIAL ERROR, GIVE STANDARD  
      00460  0602 00 0 00575  DERTB2 SLW     LAC             INVALID CALLING SEQUENCE CODE
      00461  0500 00 0 00464         CLA     ERRET         SET UP RETURN TO USER ERROR RETRUN   
      00462  0621 00 0 00600         STA     ILC           ..     
      00463  0020 00 0 00407         TRA     RETRNX   
      00464                   ERRET  BSS     1  
                  
      00465  464725456060     DERTC1 BCI     1,OPEN   
      00466  1 77774 2 00477  PON    TXI     DERTD1,2,-4    
      00467  665126314325            BCI     1,WRFILE 
      00470  1 77772 2 00505         TXI     DERTD2,2,-6    
      00471  266263216325            BCI     1,FSTATE 
      00472  1 77775 2 00510         TXI     DERTD3,2,-3    
      00473  233026314325            BCI     1,CHFILE 
      00474  1 77774 2 00510         TXI     DERTD3,2,-4    
      00475  242543263143            BCI     1,DELFIL 
      00476  1 77775 2 00510         TXI     DERTD3,2,-3    
      00477                   DERTC2 BSS     0             END OF SPECIAL ERROR TABLE     
                  
      00477 -0500 00 0 00611  DERTD1 CAL     =2            TOO MANY ACTIVE FILES    
      00500 -3 00000 2 00460         TXL     DERTB2,2,0     
      00501 -0500 00 0 00612         CAL     =5            FILE NOT FOUND CODE
      00502  1 77770 2 00503         TXI     *+1,2,-8      .. IS NEW CODE 12 FOR OPEN     
      00503 -3 00000 2 00460         TXL     DERTB2,2,0     
      00504  1 77775 2 00505         TXI     *+1,2,-3 
      00505  3 00000 2 00457  DERTD2 TXH     DERTB1,2,0    NOT A SPECIAL ERROR
      00506 -0500 00 0 00613         CAL     =6            TRACK QUOTA EXHAUSTED CODE     
      00507  0020 00 0 00460         TRA     DERTB2   
      00510  3 00000 2 00457  DERTD3 TXH     DERTB1,2,0    NOT A SPECIAL ERROR
      00511 -0500 00 0 00612         CAL     =5            FILE NOT FOUND CODE
      00512  0020 00 0 00460         TRA     DERTB2   
                  
                  
      00513  0634 00 4 00546  CKDISK SXA     CKDX4,4       SET UP FOR AND CHECK DISK ROUTINE CALL     
      00514  0634 00 1 00415         SXA     IR1,1         .. SAVE MACHINE CONDITIONS     
      00515  0634 00 2 00416         SXA     IR2,2         ..     
      00516  0604 00 0 00574         STI     IND           ..     
      00517  0602 00 0 00575         SLW     LAC           ..     
      00520  0771 00 0 00002         ARS     2             ..     
      00521  0601 00 0 00576         STO     ACSQ          ..     
      00522 -0600 00 0 00577         STQ     MQ            ..     
      00523  0534 00 4 00417         LXA     IR4,4    
      00524 -0500 00 4 00001         CAL     1,4           .. AND PICK UP ARGUMENTS 
      00525  0602 00 0 00550         SLW     1C4
      00526 -0500 00 4 00002         CAL     2,4           ..     
      00527  0602 00 0 00551         SLW     2C4
      00530 -0500 00 4 00003         CAL     3,4           ..     
      00531  0602 00 0 00552         SLW     3C4
      00532 -0500 00 4 00004         CAL     4,4           ..     
      00533  0602 00 0 00553         SLW     4C4
1            FAP                                                                                 PAGE 9     
                  
      00534  0535 00 4 00550         LAC     1C4,4         PICK UP FILE NAMES 
      00535 -0500 00 4 00000         CAL     0,4           ..     
      00536  0560 00 4 00001         LDQ     1,4           ..     
      00537  0602 00 0 00554         SLW     FILNAM        SAVE FILE NAMES IF ANY   
      00540 -0600 00 0 00555         STQ     FILNAM+1      ..     
      00541  0500 00 0 00550         CLA     1C4           CONVERT MODE 
      00542  0771 00 0 00017         ARS     15            ..     
      00543 -0734 00 4 00000         PDX     0,4           ..     
      00544  0500 00 4 00562         CLA     MODES,4       ..     
      00545  0601 00 0 00563         STO     MODE     
      00546  0774 00 4 00000  CKDX4  AXT     **,4          DISK CALL OK, RESTORE IR4
      00547  0020 00 4 00001         TRA     1,4           AND RETURN   
                  
      00550  0 00000 0 00000  1C4    PZE     0             SYSTEM SUBROUTINE ARGUMENT TABLE     
      00551  0 00000 0 00000  2C4    PZE     0             ..     
      00552  0 00000 0 00000  3C4    PZE     0             ..     
      00553  0 00000 0 00000  4C4    PZE     0             ..     
                  
      00554                   FILNAM BSS     3  
      00557 +000000000104            OCT     104           OLD R2 MODE  
      00560 +000000000104            OCT     104           OLD R1 MODE  
      00561  0 00000 0 00000         PZE     0             OLD P MODE   
      00562  0 00000 0 00001  MODES  PZE     1             OLD T MODE   
                                                           TABLE OF OLD-NEW MODE EQUIVALENCES   
      00563                   MODE   BSS     1  
      00564  0 00000 0 00000  LOADSW PZE     0             USED TO INDICATE LOAD/DUMP     
      00565 -0 00000 0 00000  OMIT   MZE     0             CODE FOR OMITTED ARGUMENTS IN DISK CALLS   
                       00660  NWDSPT EQU     432
                       00005  M      EQU     5  
      00566                   DBUF1  BSS     M  
      00573  0 00000 0 00660  BUFFL  PZE     NWDSPT   
      00574  0 00000 0 00000  IND   
      00575  0 00000 0 00000  LAC   
      00576  0 00000 0 00000  ACSQ  
      00577  0 00000 0 00000  MQ    
      00600  0 00000 0 00000  ILC   
      00601  516060606060     R      BCI     1,R
      00602  516660606060     RW     BCI     1,RW     
      00603  666060606060     W      BCI     1,W
                  
      00604  0 00000 0 00000  L      PZE     0  
      00605  0 00000 0 00000  Q0     PZE     0  
      00606  0 00000 0 00003  Q3     PZE     3  
      00607  0 00000 0 00005  Q5     PZE     5  
                       00566  TEMP   EQU     DBUF1         TEMPORARY STORAGE FOR PMOW     
                                     END  
                  
        LITERALS  
      00610  000000000001     
      00611  000000000002     
      00612  000000000005     
      00613  000000000006     
1            FAP                                                                                 PAGE 1     
                        POST PROCESSOR ASSEMBLY DATA  
                  
        614 IS THE FIRST LOCATION NOT USED BY THIS PROGRAM  
                  
0REFERENCES TO DEFINED SYMBOLS      
        604      L    25,   37,  203,  225,  253,  257,  260
          5      M   566
        601      R    62,   74,  126
        603      W    56,  115,  120,  145
        577     MQ   413,  522
        605     Q0   102,  156
        606     Q3   275,  300
        607     Q5   247
        602     RW   123,  144
        550    1C4    24,  202,  345,  402,  525,  534,  541
        551    2C4    26,   64,  132,  214,  267,  333,  362,  527
        552    3C4    31,  134,  204,  531
        553    4C4   206,  533
        600    ILC   241,  406,  420,  421,  462
        574    IND   410,  516
        415    IR1   514
        416    IR2   515
        417    IR4    22,   55,   61,  114,  117,  122,  125,  200,  265,  324,  327,  343,  523
        575    LAC    71,  105,  230,  262,  303,  313,  414,  460,  517
        442    NOP   424
        466    PON   306
        441    PTH   427
        456    PTW   312
        422    RET   405
        576   ACSQ    72,  304,  407,  521
         16   EXIT   440
        563   MODE   165,  370,  545
        565   OMIT    42
          0   OPEN   161
        157   SEK1   136
        167   SEK2   137
        176   SEK3   140
        106   SEK4   141
        112   SEK5   142
        566   TEMP   275,  277,  302,  305,  350,  351,  366,  367,  610
         45   WRT2    41
         47   WRT3    45
         43   WRT4    33
        336   (FIL   331
        160   (SEK   144,  152
        153  APEND   145
        573  BUFFL   175
        546  CKDX4   513
          4  CLOSE   107,  234,  330
        566  DBUF1   156,  247,  251,  610
        443  DERTN    43,  106,  112,  157,  167,  176,  231,  237,  250,  263,  276,  341,  373,  443
        464  ERRET   423,  430,  434,  443,  461
        315  FSTA1   301
        317  FSTA2   315
        276  FSTA3   271
         54  .DUMP     0
1            FAP                                                                                 PAGE 2     
                        POST PROCESSOR ASSEMBLY DATA  
                  
        327  .FILE     0
         60  .LOAD     0
        125  .SEEK     0
        562  MODES   544
        234  RDEOF   227,  234,  261
        143  SEEK2   130
         17  WRFLX   436
        172  (ASSN   133
        341  (FIL1   335
        331  (FILE   326
         64  (LODA   171
         77  (LODB    76
        103  (LODC    65,   66
        243  (RED1   217
        226  (RED3   220,  221
        232  (RED4   232,  264
        252  (RED5   243
        231  (RED6   210
        237  (RED7   211
        250  (RED8   212
        263  (RED9   213
         40  (WRT1    27,   30
          1 BUFFER   172
          6 CHFILE   365
        513 CKDISK    23,  131,  201,  266,  332,  344
        423 CKERTN    32,  135,  207,  270,  334,  363
        377 CKRTN2   314,  342,  374
        401 CKRTN3    44,  113,  177
        402 CKRTNX   233,  400
         10 DELFIL   146,  325
        457 DERTB1   505,  510
        460 DERTB2   435,  500,  503,  507,  512
        465 DERTC1   452
        477 DERTC2   452,  453,  455
        477 DERTD1   466
        505 DERTD2   470
        510 DERTD3   472,  474,  476
        437 FAKER1   432
        432 FAKERR    46,  316
        554 FILNAM    35,   36,  100,  101,  110,  111,  147,  150,  154,  155,  163,  164,  173,  174,  223,  224,  235
                     236,  245,  246,  255,  256,  273,  274,  337,  340,  352,  355,  360,  361,  371,  372,  447,  450
                     451,  537,  540
          5 FSTATE   153,  244,  272
         14 IODIAG   446
        117 .APEND     0
        114 .ASIGN     0
        324 .DLETE     0
        327 .ENDRD     0,  327
        324 .ERASE     0,  324
        265 .FSTAT     0
        200 .READK     0
        122 .RELRW     0
        343 .RENAM     0
        375 .RESET     0
        376 .UPDAT     0
1            FAP                                                                                 PAGE 3     
                        POST PROCESSOR ASSEMBLY DATA  
                  
         22 .WRITE     0
        564 LOADSW    54,   60,  127,  170
        107 LODEOF   104
        660 NWDSPT   566,  573
         15 PRNTER   445
        240 RDEOF1   205
          2 RDFILE    73,   77
         12 RDWAIT   222,  254
        362 RENAM1   353,  356
        373 RENAM2   364
         11 RESETF   375
        407 RETRNX   242,  463
          7 UPDATE   376
          3 WRFILE    75
         13 WRWAIT    34
        127 (SEEK1    57,   63,  116,  121,  124
                  
0 NO ERROR IN ABOVE ASSEMBLY. 




  PR12   BCD 06/25/69 2048.1    3705         00000    
1       PR12 - TYPE OUT IN FULL MODE, 6-BIT INPUT                                06/21/69 1749.4 PAGE 1     
                  
                              *     
                              * CALLING SEQUENCE:     
                              *      PR12.(VEC...COUNT, $LITRL$, ...)   
                              *      IF 'COUNT' POSITIVE, VECTOR BACKWARDS IN CORE (MAD)  
                              *      ALSO HANDLES FAP CALLS WITH COUNT IN 'PAR'     
                              *     
                              *      THVV 
                              *     
                       00012         ENTRY   PR12     
                       00015         ENTRY   PR12A    
                       00002         ENTRY   -PRMESS       TO AVOID LOADING ANOTHER MODULE
                       00005         ENTRY   -PRMESA  
                  
                  
                                     EXTERN  WRFLX,WRFLXA   
                  
                  
        TRANSFER VECTOR 
      00000  665126436760     WRFLX 
      00001  665126436721     WRFLXA
                  
                       00034  BL     EQU     28 
                  
                  
      00002 -0500 00 0 00000  PRMESS CAL     WRFLX         LAZY MAN'S WAY     
      00003  0560 00 0 00345         LDQ     BLANKS   
      00004  0020 00 0 00007         TRA     *+3
      00005 -0500 00 0 00001  PRMESA CAL     WRFLXA   
      00006  0560 00 0 00344         LDQ     NULLS    
      00007 -0625 00 0 00341         STL     FG1
      00010 -0625 00 0 00340         STL     FG 
      00011  0020 00 0 00021         TRA     PR12B    
                  
      00012 -0500 00 0 00000  PR12   CAL     WRFLX         SW INDICATES WRFLX/WRFLXA
      00013  0560 00 0 00345         LDQ     BLANKS        PAD WITH BLANKS    
      00014  0020 00 0 00017         TRA     *+3
      00015 -0500 00 0 00001  PR12A  CAL     WRFLXA   
      00016  0560 00 0 00344         LDQ     NULLS         PAD WITH NULLS     
      00017  0600 00 0 00341         STZ     FG1           SWITCH INDICATES RECOGNIZE ESCAPE    
      00020  0600 00 0 00340         STZ     FG 
      00021  0621 00 0 00074  PR12B  STA     CALL     
      00022 -0600 00 0 00346         STQ     PADNG    
      00023  0634 00 1 00076         SXA     X1,1          X1 COUNTS CHRS IN TMPI   
      00024  0634 00 2 00077         SXA     X2,2          X2 INDEX INTO TABLE
      00025  0634 00 4 00101         SXA     X4,4          X4 COUNTS WDS IN OUTBUF  
      00026  0634 00 3 00100         SXA     X3,3          X3 POINTS AT ARGS  
      00027  0774 00 2 00000         AXT     0,2           CHECK MTMD   
      00030 -0774 00 3 00001         AXC     1,3           ..     
      00031  0634 00 2 00335         SXA     MTM,2         ..     
      00032  0760 00 0 00016         LMTM                  ..     
      00033 -0520 00 0 00335         NZT     MTM           ..     
      00034  0634 00 3 00100         SXA     X3,3          ..     
      00035  0634 00 5 00102         SXA     X5,5          X5 POINTS AT INPUT 
      00036  0634 00 6 00103         SXA     X6,6          X6 COUNTS CHRS IN TMPO   
      00037  0634 00 7 00104         SXA     X7,7          X7 COUNTS WORD FOR VECTOR ARGS 
1       PR12 - TYPE OUT IN FULL MODE, 6-BIT INPUT                                06/21/69 1749.4 PAGE 2     
                  
      00040  0774 00 4 77777         AXT     -1,4          INITIALIZE   
      00041  0774 00 6 00000         AXT     0,6
      00042  0534 00 3 00101         LXA     X4,3     
      00043  0600 00 0 00336         STZ     ESW
      00044  0600 00 0 00337         STZ     RTMP     
                  
      00045 -0500 00 3 00001  ARG    CAL     1,3           GET NEXT ARG IF ANY
      00046  0737 00 5 00000         PAC     ,5            GET DATA ADDRESS   
      00047 -0737 00 7 00000         PDC     ,7            GET COUNT    
      00050 -0774 00 1 00001         AXC     1,1           X1 IS +1 OR -1, IF FORWARD/BACKWARD  
      00051 -0320 00 0 00332         ANA     PT            REMOVE ALL BUT PREFIX + TAG    
      00052  0322 00 0 00333         ERA     PAR1          IS IT A 'PAR'
      00053  0100 00 0 00110         TZE     PAR           ..     
      00054  0322 00 0 00334         ERA     BLK1          NO, IS IT A 'BLK'  
      00055  0100 00 0 00113         TZE     BLK           ..     
                  
                                             HERE WHEN NOT AN ARGUMENT  
                  
      00056 -0500 00 0 00343  ALLOUT CAL     TMPO          SEE IF PARTIAL WD  
      00057  0560 00 0 00346         LDQ     PADNG    
      00060  3 00000 6 00062         TXH     *+2,6,0       ANY CHARS LEFT...  
      00061  1 00001 4 00073         TXI     EXIT2,4,1     NO.    
      00062  3 00002 6 00065         TXH     EXIT1,6,2     IS PADDING NEEDED  
      00063 -0763 00 0 00014         LGL     12            YES, PAD     
      00064  1 00001 6 00062         TXI     *-2,6,1  
      00065  3 77743 4 00072  EXIT1  TXH     EXIT3,4,-BL-1 IS OUTBUF ALREADY FULL   
      00066  0602 00 0 00337         SLW     RTMP          YES, SAVE LAST WORD
      00067  0020 00 0 00224         TRA     WOUT          ..AND GO WRITE OUT 
      00070 -0500 00 0 00337  QC     CAL     RTMP          NOW GET BACK LAST WORD   
      00071 -0774 00 4 00001         AXC     1,4           ..     
      00072  0602 00 4 00346  EXIT3  SLW     LIN-1,4  
      00073 -0636 00 4 00075  EXIT2  SCD     *+2,4         STORE COUNT  
      00074  0074 00 4 00000  CALL   TSX     **,4          WRITE OUT FINAL LOAD     
      00075 -1 00000 0 00347         MON     LIN,,**  
                  
      00076  0774 00 1 00000  X1     AXT     **,1     
      00077  0774 00 2 00000  X2     AXT     **,2     
      00100  0774 00 3 00000  X3     AXT     **,3     
      00101  0774 00 4 00000  X4     AXT     **,4     
      00102  0774 00 5 00000  X5     AXT     **,5     
      00103  0774 00 6 00000  X6     AXT     **,6     
      00104  0774 00 7 00000  X7     AXT     **,7     
      00105  0520 00 0 00335         ZET     MTM
      00106 -0760 00 0 00016         EMTM                  UGH    
      00107  0020 00 4 00001         TRA     1,4           ZOOM.  
                  
      00110 -3 40000 7 00120  PAR    TXL     SET.I,7,16384 CALLED WITH 'PAR', IS THERE A COUNT...     
      00111  0756 00 7 00000         PCA     ,7            ..YES, AND IT'S NEGATIVE 
      00112  0020 00 0 00116         TRA     REV           ..     
                  
      00113  0500 00 7 00000  BLK    CLA     0,7           CALLED WITH 'BLK', GET COUNT   
      00114  0100 00 0 00160         TZE     NXTARG        ..IGNORE ARG IF COUNT ZERO     
      00115 -0120 00 0 00117         TMI     *+2           IF NEGATIVE, STORED FORWARD.   
      00116  0774 00 1 00001  REV    AXT     1,1           DATA BACKWARD IN CORE, FIX INCREMENT.
      00117  0734 00 7 00000         PAX     ,7            COUNT TO X7. 
      00120 -0634 00 1 00156  SET.I  SXD     BUMP,1        SET INCREMENT.     
1       PR12 - TYPE OUT IN FULL MODE, 6-BIT INPUT                                06/21/69 1749.4 PAGE 3     
                  
      00121 -0500 00 5 00000  GET    CAL     0,5           GET ONE WORD OF INPUT.   
      00122  0602 00 0 00342         SLW     TMPI     
      00123  0774 00 1 00006         AXT     6,1           6 CHARS/INPUT WORD 
      00124 -0754 00 0 00000  GETCH  ZAC  
      00125  0560 00 0 00342         LDQ     TMPI          GET CHARS FROM INPUT     
      00126 -0763 00 0 00006         LGL     6             GET ONE
      00127 -0600 00 0 00342         STQ     TMPI     
      00130  0520 00 0 00336         ZET     ESW           WAS PREVIOUS CHARACTER ESCAPE  
      00131  0020 00 0 00171         TRA     SCAPE    
      00132 -0520 00 0 00341         NZT     FG1           NO. ARE WE LOOKING FOR ESCAPES...    
      00133 -0340 00 0 00246         LAS     PRIME         YES. IS AC = 14    
      00134  0020 00 0 00136         TRA     *+2
      00135  0020 00 0 00167         TRA     ESC           YES    
      00136  0737 00 2 00000  NO     PAC     ,2            NO, INDEX INTO TABLE     
      00137  0560 00 2 00232         LDQ     TBL,2         ..     
      00140  0162 00 0 00143         TQP     ANA           IF IT'S PUNC, SKIP TESTING     
      00141 -0520 00 0 00340         NZT     FG            ALPHABETIC, SEE IF FORCE U. C. 
      00142 -0501 00 0 00405         ORA     =O100         NO, MAKE ALPHABETIC LOWERCASE  
      00143 -0320 00 0 00406  ANA    ANA     =O177         HAVE CHAR IN A     
      00144 -0340 00 0 00311         LAS     NULL          IS IT A NULL CHARACTER...
      00145  0020 00 0 00147         TRA     *+2           NO.    
      00146  0020 00 0 00155         TRA     IGNOR         YES, IGNORE IT.    
      00147 -0765 00 0 00014         LGR     12            PUSH INTO Q  
      00150 -0500 00 0 00343         CAL     TMPO          GET PART OUTPUT WORD     
      00151 -0763 00 0 00014         LGL     12            ADD NEW CHAR 
      00152  1 00001 6 00153         TXI     *+1,6,1       COUNT CHRS IN OUT WD.    
      00153  3 00002 6 00161         TXH     FULL,6,2      DUMP IF FULL 
      00154  0602 00 0 00343  CTX    SLW     TMPO          STORE BACK IN PARTIAL OUTPUT WD
      00155  2 00001 1 00124  IGNOR  TIX     GETCH,1,1     LOOP ON INPUT
      00156  1 00000 5 00157  BUMP   TXI     *+1,5,**      COUNT WORDS IN VECTOR    
      00157  2 00001 7 00121         TIX     GET,7,1       LOOP ON VECTOR     
      00160  1 77777 3 00045  NXTARG TXI     ARG,3,-1      GET NEXT ARGUMENT. 
                  
      00161  0602 00 4 00346  FULL   SLW     LIN-1,4       FULL WORD OF OUTPUT...   
      00162 -3 77744 4 00224         TXL     WOUT,4,-BL    CALL WRFLXA IF FULL BUFFER.    
      00163  1 77777 4 00164         TXI     *+1,4,-1      COUNT IT     
      00164 -0754 00 0 00000  FULL1  ZAC  
      00165  0774 00 6 00000         AXT     0,6
      00166  0020 00 0 00154         TRA     CTX
                  
      00167 -0625 00 0 00336  ESC    STL     ESW           PRIME SEEN. MARK IT
      00170  0020 00 0 00155         TRA     IGNOR    
                  
      00171  0600 00 0 00336  SCAPE  STZ     ESW           ESCAPE SEEN  
      00172  0737 00 2 00000         PAC     ,2            USE CHR TO INDEX   
      00173  0520 00 0 00340         ZET     FG            ARE WE IN FORCED CAPS    
      00174  0020 00 0 00212         TRA     Q7 
      00175  0560 00 2 00232         LDQ     TBL,2         GET TABLE ENTRY    
      00176  0162 00 0 00200         TQP     *+2           Q PLUS = PUNC
      00177  0020 00 0 00143         TRA     ANA           ALPHABETICS NO CHANGE    
      00200 -0520 00 2 00232         NZT     TBL,2         IF ZERO, SPECIAL   
      00201  0020 00 0 00204         TRA     SPECL         ..     
      00202  0131 00 0 00000         XCA                   PUNC USE TRANSLATION     
      00203  0020 00 0 00143         TRA     ANA
1       PR12 - TYPE OUT IN FULL MODE, 6-BIT INPUT                                06/21/69 1749.4 PAGE 4     
                  
      00204  0522 00 2 00200  SPECL  XEC     E6-6,2        PERFORM SPECIAL FUNCTION 
      00205  0020 00 0 00155         TRA     IGNOR         AND IGNORE CHARACTER.    
      00206 -0625 00 0 00340  E6     STL     FG            '6 SAYS 'BEGIN UPPERCASE'
      00207  0600 00 0 00340  E7     STZ     FG            '7 SAYS 'END UPPERCSE'   
      00210  0774 00 1 00001  E8     AXT     1,1           '8 SAYS 'IGNORE REST OF WORD'  
      00211  0020 00 0 00056  E9     TRA     ALLOUT        '9 SAYS 'END OF EVERYTHING, QUIT'    
                  
      00212  0402 00 0 00404  Q7     SUB     =7            IS IT 'LEAVE 6BIT' 
      00213  0100 00 0 00204         TZE     SPECL         YES    
      00214  0402 00 0 00403         SUB     =1            IS IT 'END WORD'   
      00215  0100 00 0 00204         TZE     SPECL    
      00216  0756 00 2 00000         PCA     ,2            NO. PUT THINGS BACK
      00217  0560 00 0 00342         LDQ     TMPI          ..(I HATE THIS)    
      00220 -0765 00 0 00006         LGR     6             ..     
      00221 -0600 00 0 00342         STQ     TMPI     
      00222 -0500 00 0 00246         CAL     PRIME    
      00223  1 00001 1 00143         TXI     ANA,1,1       BACK UP WORD INDEX 
                  
      00224  0074 00 4 00001  WOUT   TSX     WRFLXA,4      OUTBUF FULL, CALL WRFLXA TO DUMP IT. 
      00225 -1 00034 0 00347         MON     LIN,,28  
                  
      00226  0520 00 0 00337         ZET     RTMP          ARE WE ALMOST DONE...    
      00227  0020 00 0 00070         TRA     QC            YES    
      00230  0774 00 4 77777         AXT     -1,4          NO, LONG LINE.     
      00231  0020 00 0 00164         TRA     FULL1    
                  
                              *     
                              *     
      00232 +000000000057     TBL    OCT     057           '0 = NULL    
      00233 +000000000133            OCT     133           '1 = RED     
      00234 +000000000132            OCT     132           '2 = BLACK   
      00235 +000000000152            OCT     152           '3 = LESS    
      00236 +000000000155            OCT     155           '4 = GREATER 
      00237 +000000000105            OCT     105           '5 = PERCENT 
      00240 +000000000000            OCT     0             SPECIAL
      00241 +000000000000            OCT     0             ..     
      00242 +000000000000            OCT     0             ..     
      00243 +000000000000            OCT     0             ..     
      00244 +000000000057            OCT     057           OCTAL 12     
      00245 +000000000137            OCT     137           '= = QUOTES  
      00246 +000000000014     PRIME  OCT     014           '' = ' 
      00247 +000000000057            OCT     057           ILL    
      00250 +000000000057            OCT     057           ..     
      00251 +000000000057            OCT     057           ..     
      00252 +000000000120            OCT     120           '+ = AMPER   
      00253 -0 00000 0 00000         MZE                   A
      00254 -0 00000 0 00000         MZE  
      00255 -0 00000 0 00000         MZE  
      00256 -0 00000 0 00000         MZE  
      00257 -0 00000 0 00000         MZE  
      00260 -0 00000 0 00000         MZE  
      00261 -0 00000 0 00000         MZE  
      00262 -0 00000 0 00000         MZE  
      00263 -0 00000 0 00000         MZE                   I
      00264 +000000000057            OCT     057           ILL    
      00265 +000000000114            OCT     114           '. = EX
1       PR12 - TYPE OUT IN FULL MODE, 6-BIT INPUT                                06/21/69 1749.4 PAGE 5     
                  
      00266 +000000000156            OCT     156           ') = QM
      00267 +000000000135            OCT     135           ': = B.S.    
      00270 +000000000057            OCT     057
      00271 +000000000057            OCT     057
      00272 +000000000140            OCT     140           '- = UNDER   
      00273 -0 00000 0 00000         MZE                   J
      00274 -0 00000 0 00000         MZE  
      00275 -0 00000 0 00000         MZE  
      00276 -0 00000 0 00000         MZE  
      00277 -0 00000 0 00000         MZE  
      00300 -0 00000 0 00000         MZE  
      00301 -0 00000 0 00000         MZE  
      00302 -0 00000 0 00000         MZE  
      00303 -0 00000 0 00000         MZE                   R
      00304 +000000000052            OCT     052           (FF)   
      00305 +000000000053            OCT     053           ($)    
      00306 +000000000055            OCT     055           '* = C.R.    
      00307 +000000000055            OCT     055           (CR)   
      00310 +000000000057            OCT     057
      00311 +000000000057     NULL   OCT     057
      00312 +000000000060            OCT     060           BLANK  
      00313 +000000000072            OCT     072           '/ = TAB     
      00314 -0 00000 0 00000         MZE                   S
      00315 -0 00000 0 00000         MZE  
      00316 -0 00000 0 00000         MZE  
      00317 -0 00000 0 00000         MZE  
      00320 -0 00000 0 00000         MZE  
      00321 -0 00000 0 00000         MZE  
      00322 -0 00000 0 00000         MZE  
      00323 -0 00000 0 00000         MZE                   Z
      00324 +000000000072            OCT     072           (TAB)  
      00325 +000000000103            OCT     103           ', = SEMI    
      00326 +000000000053            OCT     053           '( = $ 
      00327 +000000000057            OCT     057
      00330 +000000000057            OCT     057
      00331 +000000000057            OCT     057
                  
                  
                              *      CONSTANTS  
                              *     
      00332 -3 00000 7 00000  PT     SVN     0,-1,0        MASK FOR PREFIX AND TAG  
      00333  3 00000 0 00000  PAR1   PAR     0  
      00334  1 00000 0 00000  BLK1   ONE                   'PAR' .XOR. 'BLK'  
      00335  0 00000 0 00000  MTM   
      00336  0 00000 0 00000  ESW   
      00337  0 00000 0 00000  RTMP  
      00340  0 00000 0 00000  FG    
      00341  0 00000 0 00000  FG1   
      00342  0 00000 0 00000  TMPI  
      00343  0 00000 0 00000  TMPO  
      00344 +005700570057     NULLS  OCT     005700570057   
      00345 +006000600060     BLANKS OCT     006000600060   
      00346  0 00000 0 00000  PADNG 
1       PR12 - TYPE OUT IN FULL MODE, 6-BIT INPUT                                06/21/69 1749.4 PAGE 6     
                  
      00347                   LIN    BSS     28 
                              *     
                  
      00403                          RMT     *  
                                     END  
                  
        LITERALS  
      00403  000000000001     
      00404  000000000007     
      00405  000000000100     
      00406  000000000177     
1       PR12 - TYPE OUT IN FULL MODE, 6-BIT INPUT                                06/21/69 1749.4 PAGE 1     
                        POST PROCESSOR ASSEMBLY DATA  
                  
        407 IS THE FIRST LOCATION NOT USED BY THIS PROGRAM  
                  
0REFERENCES TO DEFINED SYMBOLS      
         34     BL     2,   65,  162
        206     E6   204
        207     E7      
        210     E8      
        211     E9      
        340     FG    10,   20,  141,  173,  206,  207
        136     NO      
        332     PT    51
        212     Q7   174
         70     QC   227
         76     X1    23
         77     X2    24
        100     X3    26,   34
        101     X4    25,   42
        102     X5    35
        103     X6    36
        104     X7    37
        143    ANA   140,  177,  203,  223
         45    ARG   160
        113    BLK    55
        154    CTX   166
        167    ESC   135
        336    ESW    43,  130,  167,  171
        341    FG1     7,   17,  132
        121    GET   157
        347    LIN    72,   75,  161,  225
        335    MTM    31,   33,  105
        110    PAR    53
        116    REV   112
        232    TBL   137,  175,  200
        334   BLK1    54
        156   BUMP   120
         74   CALL    21
        161   FULL   153
        311   NULL   144
        333   PAR1    52
         12   PR12     0
        337   RTMP    44,   66,   70,  226
        342   TMPI   122,  125,  127,  217,  221
        343   TMPO    56,  150,  154
        224   WOUT    67,  162
         65  EXIT1    62
         73  EXIT2    61
         72  EXIT3    65
        164  FULL1   231
        124  GETCH   155
        155  IGNOR   146,  170,  205
        344  NULLS     6,   16
        346  PADNG    22,   57
         15  PR12A     0
         21  PR12B    11
1       PR12 - TYPE OUT IN FULL MODE, 6-BIT INPUT                                06/21/69 1749.4 PAGE 2     
                        POST PROCESSOR ASSEMBLY DATA  
                  
        246  PRIME   133,  222
        171  SCAPE   131
        120  SET.I   110
        204  SPECL   201,  213,  215
          0  WRFLX     2,   12
         56 ALLOUT   211
        345 BLANKS     3,   13
        160 NXTARG   114
          5 PRMESA     0
          2 PRMESS     0
          1 WRFLXA     5,   15,  224
                  
0 NO ERROR IN ABOVE ASSEMBLY. 




  PRDG   BCD 10/12/70 1352.1     775         00000    
1      M1416 3845   PETER R BOS  10/30/68  .... FILE SYSTEM ERROR DIAGNOSTIC     12/15/69 1534.4 PAGE 1     
                  
                                     PCC     ON 
                                     NOLNK
                       00003         ENTRY   PRDIAG   
                                     LBL     PRDIAG   
                                     PCC     OFF
                                     UNLIST                NO LISTING OF MACRO PACKAGE    
                  
                  
      00003  0634 00 4 00034  PRDIAG SXA     PRX4,4        SAVE LINKAGE 
      00004                          CALL    $IODIAG((TMP,,6)) GET FILE SYSTEM DIAGNOSTIC 
      00006  0500 00 0 00060         CLA     TMP+4         FILE NAME    
      00007  0560 00 0 00061         LDQ     TMP+5         ..     
      00010 -0603 00 0 00051         DST     DIAG+10       ..     
      00011 -0500 00 0 00055         CAL     TMP+1         NAME OF FCOR ENTRY 
      00012  0602 00 0 00047         SLW     DIAG+8        ..     
      00013                          CALL    $OCRBC(TMP)   LOCATION OF CALL   
      00015 -0501 00 0 00062         ORA     =O570000000000 ..    
      00016  0602 00 0 00044         SLW     DIAG+5        ..     
      00017  0560 00 0 00053         LDQ     I.O           'I/O ' 
      00020 -0500 00 0 00057         CAL     TMP+3         I/O ERROR CODE IF ANY    
      00021 -0100 00 0 00024         TNZ     *+3           IF ZERO, ORDINARY ERROR  
      00022  0560 00 0 00063         LDQ     =O575757575757 ..    
      00023 -0500 00 0 00056         CAL     TMP+2         ERROR CODE.  
      00024 -0600 00 0 00037         STQ     DIAG          ..     
      00025  0602 00 0 00054         SLW     TMP           CONVERT ERROR CODE 
      00026                          CALL    $DERBC(TMP)   ..     
      00030 -0501 00 0 00064         ORA     =O575760000000 ..    
      00031  0602 00 0 00041         SLW     DIAG+2        ..     
                  
      00032  0074 00 4 00036         TSX     WRFLX,4       PRINT DIAGNOSTIC   
      00033 -0 00014 0 00037         MZE     DIAG,,12      ..     
      00034  0774 00 4 00000  PRX4   AXT     -,4           RESTORE LINKAGE    
      00035  0020 00 4 00001         TRA     1,4           RETURN TO CALLER   
                  
                  
      00036  0101 00 0 00065  WRFLX  TIA     =HWRFLX  
                  
                  
                                             ..... STORAGE AND CONSTANTS ......     
                  
      00037  000000000000     DIAG   VFD     36/0,H30/ERROR,O6/57,36/0,O6/60, 
      00040  255151465157     
      00041  000000000000     
      00042  602646644524            ETC     H30/FOUND,O6/60,H12/AT,O18/605757,     
      00043  602163605757     
      00044  000000000000            ETC     36/0,O6/60,H12/IN,O6/60,H24/CALL,O6/60,
      00045  603145602321     
      00046  434360634660            ETC     H12/TO,O6/60,36/0,O6/60,H18/FOR, 
      00047  000000000000     
      00050  602646516057            ETC     O12/6057,36/0,36/0   
      00051  000000000000     
      00052  000000000000     
      00053  316146605757     I.O    VFD     H18/I/O,O18/605757   
      00054                   TMP    BSS     6             TEMPORARY ARRAY    
                                     END  
1      M1416 3845   PETER R BOS  10/30/68  .... FILE SYSTEM ERROR DIAGNOSTIC     12/15/69 1534.4 PAGE 2     
                  
        LITERALS  
      00062  570000000000     
      00063  575757575757     
      00064  575760000000     
      00065  665126436760     
1      M1416 3845   PETER R BOS  10/30/68  .... FILE SYSTEM ERROR DIAGNOSTIC     12/15/69 1534.4 PAGE 1     
                        POST PROCESSOR ASSEMBLY DATA  
                  
         66 IS THE FIRST LOCATION NOT USED BY THIS PROGRAM  
                  
0REFERENCES TO DEFINED SYMBOLS      
         53    I.O    17
         54    TMP     5,    6,    7,   11,   14,   20,   23,   25,   27
         37   DIAG    10,   12,   16,   24,   31,   33
         34   PRX4     3
          2  DERBC    26
          1  OCRBC    13
         36  WRFLX    32
          0 IODIAG     4
          3 PRDIAG     0
                  
0 NO ERROR IN ABOVE ASSEMBLY. 




  PRER   BCD 06/25/69 2048.3    9610         00000    
1       PRNTER--PRINT ERROR DIAGNOSTICS FOR FILE SYSTEM.                                         PAGE 1     
                  
                              * DON WAGNER'S VERSION WITH VARIABLE VERBOSITY. 
                       00003         ENTRY   PRNTER   
                                     EXTERN  IODIAG   
                              *     
                              * CALLED BY 
                              *      PRNTER.(MASK)    
                              * WHERE MASK HAS A BIT ON FOR EACH MESSAGE PART DESIRED.    
                              * THE MESSAGE PARTS ARE--     
                              * THE WORD 'ERROR '     
                              * ERROR NUMBER    
                              * FILE NAME 
                              * FILE SYSTEM ROUTINE NAME    
                              * CALLING LOCATION
                              * FILE SYSTEM LOCATION  
                              * CARRIAGE RETURN 
                              *     
                              * FOR COMPATIBILITY, IF NO ARGUMENT IS SPECIFIED OR IF
                              * MASK.E.0 A DEFAULT MASK IS USED.  
                              *     
                              * ALSO CALLED BY  
                              *      PRNTER.(MASK,FCN)
                              * WHERE FCN IS A USER'S OUTPUT ROUTINE, CALLED BY PRNTER WITH     
                              *      FCN.(BUFF(Z)...Z,Z)    
                              *     
                              * BECAUSE THE STAND-ALONE PROGRAMS NEED A SLIGHTLY DIFFERENT
                              * PRNTER, THE FOLLOWING ASSEMBLY PARAMETER (LIB) DETERMINES 
                              * WHETHER COLT IS CALLED, HOW LONG A PRINTED LINE IS, 
                              * WHETHER WRFLX OR WRFLXA IS CALLED.
                  
                  
        TRANSFER VECTOR 
      00000  314624312127     IODIAG
      00001  234643636060     COLT  
      00002  665126436721     WRFLXA
                  
                       00001  LIB    EQU     1  
                  
                              * LIB IS 1 FOR A NORMAL LIBRARY SUBROUTINE, 0 FOR GARMAN'S  
                              * SPECIAL ROUTINE.
                              *     
                              * COLT MACRO EITHER CALLS $COLT OR DOES AN EASY SUBSET FOR GARMAN.
                              *     
                              LIBCLT MACRO
                                     TSX     $COLT,4  
                                             IR4
                              LIBCLT END  
                              *     
                              INDCLT MACRO
                                     LDI     1,4
                                     IIL     300000        TXH    
                                     CAL     =O1000000
                                     OFT     =O700000700000 
                                     CAL     =0 
                                     TXI     *+1,4,-1 
                              INDCLT END  
                              *     
1       PRNTER--PRINT ERROR DIAGNOSTICS FOR FILE SYSTEM.                                         PAGE 2     
                  
             2 12251 0 10641  COLT   OPSYN   LIBCLT   
                              *     
      00003  0636 00 1 00266  PRNTER SCA     SAV1,1   
      00004  0636 00 2 00267         SCA     SAV2,2   
      00005  0604 00 0 01265         STI     SAVI     
      00006 -0634 00 4 01263         SXD     IR4,4    
      00007                          COLT 
      00007  0074 00 4 00001         TSX     $COLT,4                                                          .001
      00010  0 00000 0 01263                 IR4                                                              .001
      00011  0636 00 4 00270         SCA     SAV4,4   
      00012 -0534 00 4 01263         LXD     IR4,4    
      00013 -0734 00 2 00000         PDX     ,2 
      00014 -3 00000 2 00017         TXL     PR00,2,0 
      00015  0441 60 4 00001         LDI*    1,4
      00016 -0520 60 4 00001         NZT*    1,4
      00017  0055 00  000375  PR00   SIR     DFMASK   
      00020  0604 00 0 01266         STI     MASK     
      00021  0600 00 0 01262         STZ     CALLSW   
      00022 -3 00001 2 00026         TXL     PRP1,2,1 
      00023 -0500 00 4 00002         CAL     2,4
      00024  0621 00 0 00247         STA     CALL     
      00025 -0625 00 0 01262         STL     CALLSW   
 A    00026                   PRP1   BSS  
      00026  0074 00 4 00000         TSX     IODIAG,4      GET ERROR INFO     
      00027  3 00007 0 01253         TXH     DIBUF,,7      ..     
                              *     
      00030  0535 00 2 01255         LAC     DIBUF+2,2     PICK UP ERROR CODE 
      00031  0636 00 2 01267         SCA     ERRN,2   
      00032  3 77775 2 00274         TXH     STAND,2,-3    1 AND 2 ARE STANDARD.    
      00033 -3 77634 2 00276         TXL     STAND1,2,-100 100 UP ALSO  
                              *     
      00034 -0500 00 0 01254         CAL     DIBUF+1       ALL OTHERS DEPEND UPON ROUTINE.
      00035  0774 00 1 00072         AXT     NOCALL,1 
      00036 -0340 00 1 00403  PR01   LAS     CALLS,1       SEARCH FOR IO ROUTINE    
      00037  0020 00 0 00041         TRA     *+2
      00040  0020 00 0 00043         TRA     PR02          FOUND  
      00041  2 00002 1 00036         TIX     PR01,1,2 
      00042  0020 00 0 00271         TRA     NFOUND        NOT FOUND    
                              *     
      00043  0500 00 1 00404  PR02   CLA     CALLS+1,1     FOUND  
      00044  0120 00 0 00046  PRP2   TPL     *+2           MINUS MEANS DON'T PRINT FILE NAME.   
      00045  0057 00  000020         RIR     FNBIT         ..     
      00046  0604 00 0 01266         STI     MASK          ..     
      00047  0760 00 0 00006         COM                   CHECK WHETHER NUMBER IS KNOWN FOR ENTRY    
      00050  0622 00 0 00051         STD     *+1           ..     
      00051  3 00000 2 00053         TXH     *+2,2,--      ..     
      00052  0020 00 0 00271         TRA     NFOUND        ..     
      00053  0500 60 1 00404         CLA*    CALLS+1,1     POINTER TO MESSAGE 
      00054 -0120 00 0 00301         TMI     IOER          MINUS MEANS IO ERROR.    
      00055  0737 00 2 00000  GMESS  PAC     ,2            CALCULATE MESSAGE LIMITS ETC.  
      00056 -3 00000 2 00271         TXL     NFOUND,2,0    .. IR2=CURRENT WORD IN MESSAGE 
      00057  0734 00 1 00000         PAX     ,1            ..     
      00060  0622 00 0 00061         STD     PR03          ..     
      00061  1 00000 1 00062  PR03   TXI     *+1,1,--      ..     
      00062 -0756 00 1 00000         PCD     ,1            ..     
      00063  0622 00 0 00123         STD     MS03          .. LIMIT OF MESSAGE
1       PRNTER--PRINT ERROR DIAGNOSTICS FOR FILE SYSTEM.                                         PAGE 3     
                  
      00064  0622 00 0 00167         STD     MSP7          .. ..  
      00065  0622 00 0 00162         STD     MS07          .. ..  
                              *     
      00066 -0774 00 1 01227         AXC     OTBUF,1       IR1=-CURRENT PLACE IN OUTPUT BUFFER  
                              *     
      00067  0056 00  000200         RNT     QTBIT         IS THE WORD 'ERROR' DESIRED    
      00070  0020 00 0 00074         TRA     QT01     
      00071 -0500 00 0 01300         CAL     =HERROR  
      00072  0602 00 1 00000         SLW     ,1 
      00073  1 77777 1 00074         TXI     *+1,1,-1 
 A    00074                   QT01   BSS  
                              *     
      00074  0056 00  000100         RNT     NRBIT         IS ERROR NUMBER DESIRED  
      00075  0020 00 0 00105         TRA     NR02          NO     
      00076  0074 00 4 01203         TSX     DEFBC,4       YES    
 TD   00077  3 00000 0 01267         TXH     ERRN     
      00100  0560 00 0 01302         LDQ     =O356057575757 
 A    00101                   NR01   BSS  
      00101 -0765 00 0 00006         LGR     6  
      00102 -0100 00 0 00101         TNZ     NR01     
      00103 -0600 00 1 00000  NRP1   STQ     ,1 
      00104  1 77777 1 00105         TXI     *+1,1,-1 
 A    00105                   NR02   BSS  
                              *     
      00105  0056 00  000040         RNT     MSBIT         IS MESSAGE DESIRED 
      00106  0020 00 0 00140         TRA     MSP5          NO     
      00107  0560 00 2 00000  MS01   LDQ     ,2            YES, GET WORD FROM MESSAGE     
      00110  0774 00 4 00044         AXT     36,4          IR4 COUNTS CHARACTERS    
      00111 -0763 00 0 00006  MS02   LGL     6             DOES WORD HAVE A $ 
      00112  0044 00 0 00000         PAI                   ..     
      00113  0051 00  000053         IIR     FCHAR         ..     
      00114  0054 00  000077         RFT     000077        ..     
      00115  0020 00 0 00117         TRA     *+2           ..     
      00116  0020 00 0 00132         TRA     MS04          ..     
      00117  2 00006 4 00111         TIX     MS02,4,6      ..     
      00120  0602 00 1 00000         SLW     ,1            NO, STORE IT 
      00121  1 77777 1 00122         TXI     *+1,1,-1      ..     
      00122  1 77777 2 00123         TXI     *+1,2,-1      AND LOOP     
      00123  3 00000 2 00107  MS03   TXH     MS01,2,--     ..     
      00124  0441 00 0 01266         LDI     MASK     
      00125  0057 00  000040         RIR     MSBIT         IF NO $ FOUND, INDICATE THAT THERE   
      00126  0604 00 0 01266         STI     MASK     
      00127 -0500 00 0 01310         CAL     =O605757575757    IS NO SECOND HALF, THEN    
      00130  0602 00 1 00000         SLW     ,1            PUT IN FILE NAME.  
      00131  1 77777 1 00140         TXI     MSP5,1,-1     ..     
                              *     
      00132  0560 00 0 01305  MS04   LDQ     =O575757575757    YES, PUT IN PART BEFORE $  
      00133  0771 00 0 00006         ARS     6             ..     
      00134  0634 00 4 00135         SXA     MSP4,4        ..     
      00135 -0763 00 0 00000  MSP4   LGL     -- 
      00136  0602 00 1 00000         SLW     ,1 
      00137  1 77777 1 00140         TXI     *+1,1,-1 
 A    00140                   MSP5   BSS  
                              *     
      00140  0441 00 0 01266  FN01   LDI     MASK     
                              *     
1       PRNTER--PRINT ERROR DIAGNOSTICS FOR FILE SYSTEM.                                         PAGE 4     
                  
      00141  0056 00  000020         RNT     FNBIT         IS FILE NAME DESIRED     
      00142  0020 00 0 00152         TRA     FN02          NO     
      00143 -0500 00 0 01257         CAL     DIBUF+4       YES    
      00144  0602 00 1 00000         SLW     ,1 
      00145 -0500 00 0 01310         CAL     =O605757575757 
      00146  0602 00 1 00001         SLW     1,1
      00147 -0500 00 0 01260         CAL     DIBUF+5  
      00150  0602 00 1 00002         SLW     2,1
      00151  1 77775 1 00152         TXI     *+1,1,-3 
 A    00152                   FN02   BSS  
                              *     
      00152  0056 00  000040  MS05   RNT     MSBIT         IS MESSAGE DESIRED (SECOND TIME ASKED)     
      00153  0020 00 0 00170         TRA     MSP8          NO     
      00154 -0500 00 2 00000  MS06   CAL     ,2            YES--GET THE PART AFTER THE $  
      00155  0560 00 0 01305         LDQ     =O575757575757 
      00156 -0763 00 4 00052         LGL     42,4          ..     
      00157  0602 00 1 00000         SLW     ,1            AND STORE INTO OUTPUT LINE     
      00160  1 77777 1 00161         TXI     *+1,1,-1 
      00161  1 77777 2 00162         TXI     *+1,2,-1 
      00162 -3 00000 2 00170  MS07   TXL     MSP8,2,--
      00163 -0500 00 2 00000  MSP6   CAL     ,2            PUT IN REST OF MESSAGE   
      00164  0602 00 1 00000         SLW     ,1            ..     
      00165  1 77777 1 00166         TXI     *+1,1,-1      ..     
      00166  1 77777 2 00167         TXI     *+1,2,-1      ..     
      00167  3 00000 2 00163  MSP7   TXH     MSP6,2,--     ..     
 A    00170                   MSP8   BSS  
                              *     
      00170  0441 00 0 01266  RN01   LDI     MASK     
      00171  0056 00  000010         RNT     RNBIT         IS ROUTINE NAME DESIRED  
      00172  0020 00 0 00200         TRA     RN02          NO     
      00173 -0500 00 0 01303         CAL     =O404057575757    YES
      00174  0602 00 1 00000         SLW     ,1 
      00175 -0500 00 0 01254         CAL     DIBUF+1  
      00176  0602 00 1 00001         SLW     1,1
      00177  1 77776 1 00200         TXI     *+1,1,-2 
 A    00200                   RN02   BSS  
                              *     
      00200  0056 00  000004  LC01   RNT     LCBIT         IS LOCATION DESIRED
      00201  0020 00 0 00217         TRA     LC02          NO     
      00202 -0500 00 0 01306         CAL     =O602163575757    YES
      00203  0602 00 1 00000         SLW     ,1 
      00204  0074 00 4 01214         TSX     OCABC,4       GET BCD OF LOCATION.     
 TD   00205  3 00000 0 01253         TXH     DIBUF         ..     
      00206  0601 00 1 00001         STO     1,1
      00207  1 77776 1 00210         TXI     *+1,1,-2 
      00210 -0534 00 4 01253         LXD     DIBUF,4       IS IT CORE A 
      00211  3 00001 4 00217         TXH     LC02,4,1      ..     
      00212 -0500 00 0 01307         CAL     =H CORE       YES--MENTION THE FACT.   
      00213  0602 00 1 00000         SLW     ,1 
      00214 -0500 00 0 01277         CAL     =O215757575757 
      00215  0602 00 1 00001         SLW     1,1
      00216  1 77776 1 00217         TXI     *+1,1,-2 
 A    00217                   LC02   BSS  
                              *     
      00217  0056 00  000002  FS01   RNT     FSBIT         IS FILE SYSTEM LOC DESIRED     
      00220  0020 00 0 00231         TRA     FS02          NO     
1       PRNTER--PRINT ERROR DIAGNOSTICS FOR FILE SYSTEM.                                         PAGE 5     
                  
      00221 -0500 00 0 01311         CAL     =O607426336233    YES
      00222  0602 00 1 00000         SLW     ,1 
      00223  0074 00 4 01214         TSX     OCABC,4  
 TD   00224  3 00000 0 01261         TXH     DIBUF+6  
      00225  0601 00 1 00001         STO     1,1
      00226 -0500 00 0 01301         CAL     =O345757575757 
      00227  0602 00 1 00002         SLW     2,1
      00230  1 77775 1 00231         TXI     *+1,1,-3 
 A    00231                   FS02   BSS  
                              *     
      00231  0056 00  000001  CR01   RNT     CRBIT         IS CARRIAGE RETURN DESIRED     
      00232  0020 00 0 00236         TRA     CR02          NO     
      00233 -0500 00 0 01304         CAL     =O555757575757    YES
      00234  0602 00 1 00000         SLW     ,1 
      00235  1 77777 1 00236         TXI     *+1,1,-1 
 A    00236                   CR02   BSS  
                              *     
      00236  1 01227 1 00237  PR04   TXI     *+1,1,OTBUF   CALCULATE SIZE OF RESULTING LINE     
      00237  0756 00 1 00000         PCA     ,1            ..     
      00240  0734 00 1 00000         PAX     ,1            .. NOW IR1=SIZE    
                              *     
      00241 -0520 00 0 01262         NZT     CALLSW        CALL USER-SPECIFIED FUNCTION   
      00242  0020 00 0 00253         TRA     PRP4          OR JUST PRINT
      00243  0634 00 1 01264         SXA     LINZ,1        SET UP MAD ARG     
      00244 -0634 00 1 00250         SXD     CL01,1        SET UP FAP ARG     
      00245  1 01227 1 00246         TXI     *+1,1,OTBUF    
      00246  0634 00 1 00250         SXA     CL01,1   
      00247  0074 00 4 00000  CALL   TSX     --,4          CALL FUNCTION
      00250  3 00000 0 00000  CL01   TXH     --,,--   
 TD   00251  3 00000 0 01264         TXH     LINZ     
      00252  0020 00 0 00265         TRA     RT01     
                              *     
 A    00253                   PRP4   BSS  
      00253  0774 00 2 01227         AXT     OTBUF,2  
      00254 -2 00016 1 00261  PR05   TNX     PR07,1,WRFLXZ  
      00255  0634 00 2 00257         SXA     PR06,2   
      00256  0074 00 4 00002         TSX     $WRFLXA,4
      00257  0 00016 0 00000  PR06           --,,WRFLXZ     
      00260  1 00016 2 00254         TXI     PR05,2,WRFLXZ  
                              *     
      00261  0634 00 2 00264  PR07   SXA     PR08,2   
      00262 -0634 00 1 00264         SXD     PR08,1   
      00263  0074 00 4 00002         TSX     $WRFLXA,4
      00264  0 00000 0 00000  PR08           --,,--   
                              * RETURN    
 A    00265                   RT01   BSS  
      00265  0441 00 0 01265         LDI     SAVI     
      00266 -0774 00 1 00000  SAV1   AXC     --,1     
      00267 -0774 00 2 00000  SAV2   AXC     --,2     
      00270  0020 00 0 00000  SAV4   TRA     --            RETURN AS DIRECTED BY COLT     
                              *     
      00271  0500 00 0 00403  NFOUND CLA     DNF
      00272  0055 00  000100         SIR     NRBIT    
      00273  0020 00 0 00055         TRA     GMESS    
                              *     
      00274  0500 00 2 00404  STAND  CLA     PZE1-1,2      ERROR CODES 1 AND 2 ARE STANDARD     
1       PRNTER--PRINT ERROR DIAGNOSTICS FOR FILE SYSTEM.                                         PAGE 6     
                  
      00275  0020 00 0 00055         TRA     GMESS         .. FOR ALL IO CALLS
                              *     
      00276 -3 77632 2 00271  STAND1 TXL     NFOUND,2,PZE100-PZE999-100    UNKNOWN IF CODE TOO LARGE  
      00277  0500 00 2 00243         CLA     PZE100-100,2  PICK UP STANDARD CODE    
      00300  0020 00 0 00055         TRA     GMESS    
                              *     
      00301  0535 00 2 01256  IOER   LAC     DIBUF+3,2     IO ERROR CODE
      00302  0636 00 2 01267         SCA     ERRN,2   
      00303 -3 77771 2 00306         TXL     IOER2,2,-NOIOER
      00304  0500 00 2 00557         CLA     IOERT,2  
      00305  0020 00 0 00055         TRA     GMESS    
      00306  0500 00 0 00404  IOER2  CLA     DNFIO    
      00307  0055 00  000100         SIR     NRBIT    
      00310  0020 00 0 00055         TRA     GMESS    
                       00311  CALLB  SYN     *             TABLE OF POSSIBLE I/O CALLS    
                  
      00311  644724442624            BCI     1,UPDMFD 
      00312  0 00005 2 00406                 UPDMF,2,5
      00313  242543442624            BCI     1,DELMFD 
      00314  0 00004 2 00412                 DELMF,2,4
      00315  216363212330            BCI     1,ATTACH 
      00316  0 00004 2 00414                 ATTAC,2,4
      00317  644724216325            BCI     1,UPDATE 
      00320 -0 00003 2 00411         MZE     UPDAT,2,3
      00321  464725456060            BCI     1,OPEN   
      00322  0 00024 2 00416                 OPEN,2,20
      00323  226426262551            BCI     1,BUFFER 
      00324  0 00006 2 00440                 BUFFE,2,6
      00325  512426314325            BCI     1,RDFILE 
      00326  0 00010 2 00444                 RDFIL,2,8
      00327  512466213163            BCI     1,RDWAIT 
      00330  0 00010 2 00444                 RDFIL,2,8
      00331  665126314325            BCI     1,WRFILE 
      00332  0 00012 2 00452                 WRFIL,2,10     
      00333  665166213163            BCI     1,WRWAIT 
      00334  0 00012 2 00452                 WRFIL,2,10     
      00335  635126314325            BCI     1,TRFILE 
      00336  0 00011 2 00462                 TRFIL,2,9
      00337  262330252342            BCI     1,FCHECK 
      00340  0 00005 2 00471                 CLOSE,2,5
      00341  266621316360            BCI     1,FWAIT  
      00342  0 00005 2 00471                 CLOSE,2,5
      00343  234346622560            BCI     1,CLOSE  
      00344  0 00006 2 00471                 CLOSE,2,6
      00345  512562256326            BCI     1,RESETF 
      00346  0 00003 2 00411                 UPDAT,2,3
      00347  233026314325            BCI     1,CHFILE 
      00350  0 00014 2 00475                 CHFIL,2,12     
      00351  242543263143            BCI     1,DELFIL 
      00352  0 00010 2 00507                 DELFL,2,8
      00353  266263216325            BCI     1,FSTATE 
      00354  0 00005 2 00507                 DELFL,2,5
      00355  444665263143            BCI     1,MOVFIL 
      00356  0 00012 2 00515                 MOVFL,2,10     
      00357  622563263143            BCI     1,SETFIL 
      00360  0 00005 2 00525                 SETFL,2,5
1       PRNTER--PRINT ERROR DIAGNOSTICS FOR FILE SYSTEM.                                         PAGE 7     
                  
      00361  433145426060            BCI     1,LINK   
      00362  0 00006 2 00530                 LINK,2,6 
      00363  644543314542            BCI     1,UNLINK 
      00364  0 00005 2 00534                 UNLIN,2,5
      00365  214343466360            BCI     1,ALLOT  
      00366 -0 00003 2 00537         MZE     ALLOT,2,3
      00367  626346512725            BCI     1,STORGE 
      00370 -0 00004 2 00537         MZE     ALLOT,2,4
      00371  444664456360            BCI     1,MOUNT  
      00372 -0 00004 2 00541         MZE     MOUNT,2,4
      00373  644446644563            BCI     1,UMOUNT 
      00374 -0 00003 2 00543         MZE     UMOUN,2,3
      00375  652551312670            BCI     1,VERIFY 
      00376 -0 00007 2 00544         MZE     VERIF,2,7
      00377  432122254360            BCI     1,LABEL  
      00400 -0 00006 2 00544         MZE     VERIF,2,6
      00401  632147263143            BCI     1,TAPFIL 
      00402  0 00006 2 00551                 TAPFL,2,6
                  
                       00403  CALLS  SYN     *  
                  
                       00072  NOCALL EQU     CALLS-CALLB    
                              *     
                              *              POINTER TO DIAGNOSTIC COMMENTS   
                              *     
      00403  0 00003 0 00566  DNF    PZE     DIAG0,,3 
      00404  0 00004 0 01135  DNFIO  PZE     DIAGI0,,4
                              *     
      00405  0 00010 0 00571  PZE1   PZE     DIAG1,,8 
      00406  0 00006 0 00601                 DIAG2,,6 
                              *     
      00407  0 00004 0 00607  PZE100         DIAG00,,4
      00410  0 00004 0 00613                 DIAG01,,4
                       00411  PZE999 SYN     *             END OF STANDARD CODES    
                              *     
                       00406  UPDMF  EQU     *-3
      00411  0 00004 0 00617                 DIAGA1,,4
      00412  0 00004 0 00623                 DIAGA2,,4
      00413  0 00004 0 00636                 DIAGA5,,4
                              *     
                       00411  UPDAT  EQU     *-3
      00414  0 00004 0 00623                 DIAGA2,,4
                              *     
                       00412  DELMF  EQU     *-3
      00415  0 00003 0 00627                 DIAGA3,,3
      00416  0 00004 0 00632                 DIAGA4,,4
                              *     
                       00414  ATTAC  EQU     *-3
      00417  0 00003 0 00627                 DIAGA3,,3
      00420  0 00004 0 00623                 DIAGA2,,4
                              *     
                       00416  OPEN   EQU     *-3
      00421  0 00002 0 00642                 DIAGB1,,2
      00422  0 00004 0 00644                 DIAGB2,,4
      00423  0 00003 0 00650                 DIAGB3,,3
      00424  0 00003 0 00566                 DIAG0,,3 
1       PRNTER--PRINT ERROR DIAGNOSTICS FOR FILE SYSTEM.                                         PAGE 8     
                  
      00425  0 00004 0 00657                 DIAGB5,,4
      00426  0 00004 0 00663                 DIAGB6,,4
      00427  0 00006 0 00667                 DIAGB7,,6
      00430  0 00006 0 00675                 DIAGB8,,6
      00431  0 00004 0 00623                 DIAGA2,,4
      00432  0 00002 0 00703                 DIAGB9,,2
      00433  0 00003 0 00705                 DIAGC1,,3
      00434  0 00005 0 00710                 DIAGC2,,5
      00435  0 00004 0 00715                 DIAGC3,,4
      00436  0 00005 0 00721                 DIAGC4,,5
      00437 -0 00000 0 00000         MZE  
      00440  0 00004 0 00726                 DIAGC5,,4
      00441  0 00004 0 00613                 DIAG01,,4
      00442  0 00007 0 00752                 DIAGC9,,7
                              *     
                       00440  BUFFE  EQU     *-3
      00443  0 00002 0 00761                 DIAGD1,,2
      00444  0 00005 0 00763                 DIAGD2,,5
      00445  0 00003 0 00770                 DIAGD3,,3
      00446 -0 00000 0 00000         MZE  
                              *     
                       00444  RDFIL  EQU     *-3
      00447  0 00002 0 00761                 DIAGD1,,2
      00450  0 00004 0 00773                 DIAGD4,,4
      00451  0 00004 0 01003                 DIAGD6,,4
      00452  0 00005 0 00763                 DIAGD2,,5
      00453 -0 00000 0 00000         MZE  
      00454  0 00003 0 00732                 DIAGC6,,3
                              *     
                       00452  WRFIL  EQU     *-3
      00455  0 00002 0 00761                 DIAGD1,,2
      00456  0 00004 0 00777                 DIAGD5,,4
      00457  0 00004 0 01003                 DIAGD6,,4
      00460  0 00004 0 00715                 DIAGC3,,4
      00461  0 00005 0 00763                 DIAGD2,,5
      00462 -0 00000 0 00000         MZE  
      00463  0 00010 0 00735                 DIAGC7,,8
      00464  0 00005 0 00745                 DIAGC8,,5
                              *     
                       00462  TRFIL  EQU     *-3
      00465  0 00002 0 00761                 DIAGD1,,2
      00466  0 00004 0 00777                 DIAGD5,,4
      00467  0 00004 0 01003                 DIAGD6,,4
      00470  0 00005 0 00763                 DIAGD2,,5
      00471  0 00003 0 01007                 DIAGD7,,3
      00472 -0 00000 0 00000         MZE  
      00473  0 00010 0 00735                 DIAGC7,,8
                              *     
                       00471  CLOSE  EQU     *-3
      00474  0 00002 0 00761                 DIAGD1,,2
      00475  0 00005 0 00763                 DIAGD2,,5
      00476 -0 00000 0 00000         MZE  
      00477  0 00004 0 00623                 DIAGA2,,4
                              *     
                       00475  CHFIL  EQU     *-3
      00500  0 00006 0 01012                 DIAGD8,,6
1       PRNTER--PRINT ERROR DIAGNOSTICS FOR FILE SYSTEM.                                         PAGE 9     
                  
      00501  0 00002 0 00703                 DIAGB9,,2
      00502  0 00004 0 00653                 DIAGB4,,4
      00503  0 00004 0 00657                 DIAGB5,,4
      00504  0 00004 0 00663                 DIAGB6,,4
      00505  0 00010 0 01020                 DIAGD9,,8
      00506  0 00004 0 00715                 DIAGC3,,4
      00507  0 00003 0 01030                 DIAGE2,,3
      00510  0 00004 0 00623                 DIAGA2,,4
      00511  0 00002 0 00642                 DIAGB1,,2
                              *     
                       00507  DELFL  EQU     *-3
      00512  0 00002 0 00703                 DIAGB9,,2
      00513  0 00004 0 00653                 DIAGB4,,4
      00514  0 00004 0 00657                 DIAGB5,,4
      00515  0 00003 0 01036                 DIAGE3,,3
      00516  0 00004 0 00623                 DIAGA2,,4
      00517  0 00002 0 00642                 DIAGB1,,2
                              *     
                       00515  MOVFL  EQU     *-3
      00520  0 00002 0 00703                 DIAGB9,,2
      00521  0 00002 0 01041                 DIAGE4,,2
      00522  0 00003 0 01036                 DIAGE3,,3
      00523  0 00007 0 01043                 DIAGE5,,7
      00524  0 00004 0 00623                 DIAGA2,,4
      00525  0 00002 0 00642                 DIAGB1,,2
      00526  0 00004 0 00613                 DIAG01,,4
      00527  0 00004 0 00726                 DIAGC5,,4
                              *     
                       00525  SETFL  EQU     *-3
      00530  0 00003 0 00705                 DIAGC1,,3
      00531  0 00004 0 00623                 DIAGA2,,4
      00532  0 00002 0 01041                 DIAGE4,,2
                              *     
                       00530  LINK   EQU     *-3
      00533  0 00003 0 01030                 DIAGE2,,3
      00534  0 00004 0 00623                 DIAGA2,,4
      00535  0 00006 0 01052                 DIAGE6,,6
      00536  0 00004 0 00726                 DIAGC5,,4
                              *     
                       00534  UNLIN  EQU     *-3
      00537  0 00002 0 00703                 DIAGB9,,2
      00540  0 00002 0 01060                 DIAGE7,,2
      00541  0 00004 0 00623                 DIAGA2,,4
                              *     
                       00537  ALLOT  EQU     *-3
      00542  0 00003 0 00705                 DIAGC1,,3
      00543  0 00004 0 00623                 DIAGA2,,4
                              *     
                       00541  MOUNT  EQU     *-3
      00544  0 00007 0 01062                 DIAGF1,,7
      00545  0 00006 0 01126                 DIAGF8,,6
                              *     
                       00543  UMOUN  EQU     *-3
      00546  0 00005 0 01071                 DIAGF2,,5
                              *     
                       00544  VERIF  EQU     *-3
1       PRNTER--PRINT ERROR DIAGNOSTICS FOR FILE SYSTEM.                                         PAGE 10    
                  
      00547  0 00004 0 01107                 DIAGF5,,4
      00550  0 00005 0 01121                 DIAGF7,,5
      00551  0 00006 0 01101                 DIAGF4,,6
      00552  0 00006 0 01113                 DIAGF6,,6
      00553  0 00003 0 01076                 DIAGF3,,3
                              *     
                       00551  TAPFL  EQU     *-3
      00554  0 00003 0 01030                 DIAGE2,,3
      00555  0 00004 0 00623                 DIAGA2,,4
      00556  0 00005 0 00710                 DIAGC2,,5
      00557  0 00004 0 00726                 DIAGC5,,4
                              *     
                       00557  IOERT  EQU     *-1
      00560  0 00006 0 01141                 DIAGI1,,6
      00561  0 00006 0 01147                 DIAGI2,,6
      00562  0 00006 0 01155                 DIAGI3,,6
      00563  0 00007 0 01163                 DIAGI4,,7
      00564  0 00005 0 01172                 DIAGI5,,5
      00565  0 00004 0 01177                 DIAGI6,,4
                       00007  NOIOER EQU     *-IOERT  
                              *     
                  
                                             DIAGNOSTIC COMMENTS  
                  
      00566  644542454666     DIAG0  BCI     3,UNKNOWN ERROR CODE 
      00567  456025515146     
      00570  516023462425     
                              *     
      00571  314343252721     DIAG1  BCI     8,ILLEGAL CALLING SEQUENCE OR PROTECTION VIOLATION 
      00572  436023214343     
      00573  314527606225     
      00574  506425452325     
      00575  604651604751     
      00576  466325236331     
      00577  464560653146     
      00600  432163314645     
      00601  644521646330     DIAG2  BCI     6,UNAUTHORIZED USE OF PRIVILEGED CALL  
      00602  465131712524     
      00603  606462256046     
      00604  266047513165     
      00605  314325272524     
      00606  602321434360     
                              *     
      00607  255151465160     DIAG00 BCI     4,ERROR IN U.F.D./M.F.D.   
      00610  314560643326     
      00611  332433614433     
      00612  263324336060     
      00613  643326332433     DIAG01 BCI     4,U.F.D./M.F.D. NOT FOUND  
      00614  614433263324     
      00615  336045466360     
      00616  264664452460     
                              *     
      00617  646225516021     DIAGA1 BCI     4,USER ALREADY IN M.F.D.   
      00620  435125212470     
      00621  603145604433     
      00622  263324336060     
1       PRNTER--PRINT ERROR DIAGNOSTICS FOR FILE SYSTEM.                                         PAGE 11    
                  
      00623  442123303145     DIAGA2 BCI     4,MACHINE OR SYSTEM ERROR  
      00624  256046516062     
      00625  706263254460     
      00626  255151465160     
      00627  646225516045     DIAGA3 BCI     3,USER NOT IN M.F.D. 
      00630  466360314560     
      00631  443326332433     
      00632  643326332433     DIAGA4 BCI     4,U.F.D. STILL IN USE
      00633  606263314343     
      00634  603145606462     
      00635  256060606060     
      00636  712551466047     DIAGA5 BCI     4,ZERO PROBLEM NUMBER
      00637  514622432544     
      00640  604564442225     
      00641  516060606060     
                              *     
      00642  536021236331     DIAGB1 BCI     2,$ ACTIVE     
      00643  652560606060     
      00644  634646604421     DIAGB2 BCI     4,TOO MANY ACTIVE FILES    
      00645  457060212363     
      00646  316525602631     
      00647  432562606060     
      00650  314343252721     DIAGB3 BCI     3,ILLEGAL STATUS     
      00651  436062632163     
      00652  646260606060     
      00653  433145422524     DIAGB4 BCI     4,LINKED FILE $ NOT FOUND  
      00654  602631432560     
      00655  536045466360     
      00656  264664452460     
      00657  536043314542     DIAGB5 BCI     4,$ LINK DEPTH EXCEEDED    
      00660  602425476330     
      00661  602567232525     
      00662  242524606060     
      00663  536031456014     DIAGB6 BCI     4,$ IN 'PRIVATE' MODE
      00664  475131652163     
      00665  251460444624     
      00666  256060606060     
      00667  216363254447     DIAGB7 BCI     6,ATTEMPT TO WRITE 'READ-ONLY' FILE $  
      00670  636063466066     
      00671  513163256014     
      00672  512521244046     
      00673  454370146026     
      00674  314325605360     
      00675  216363254447     DIAGB8 BCI     6,ATTEMPT TO READ 'WRITE-ONLY' FILE $  
      00676  636063466051     
      00677  252124601466     
      00700  513163254046     
      00701  454370146026     
      00702  314325605360     
      00703  536045466360     DIAGB9 BCI     2,$ NOT FOUND  
      00704  264664452460     
                              *     
      00705  314343252721     DIAGC1 BCI     3,ILLEGAL DEVICE     
      00706  436024256531     
      00707  232560606060     
      00710  454660624721     DIAGC2 BCI     5,NO SPACE ALLOTTED FOR DEVICE   
1       PRNTER--PRINT ERROR DIAGNOSTICS FOR FILE SYSTEM.                                         PAGE 12    
                  
      00711  232560214343     
      00712  466363252460     
      00713  264651602425     
      00714  653123256060     
      00715  512523465124     DIAGC3 BCI     4,RECORD QUOTA OVERFLOW    
      00716  605064466321     
      00717  604665255126     
      00720  434666606060     
      00721  536022253145     DIAGC4 BCI     5,$ BEING RESTORED FROM TAPE     
      00722  276051256263     
      00723  465125246026     
      00724  514644606321     
      00725  472560606060     
      00726  314343252721     DIAGC5 BCI     4,ILLEGAL USE OF M.F.D.    
      00727  436064622560     
      00730  462660443326     
      00731  332433606060     
      00732  643326332433     DIAGC6 BCI     3,U.F.D. DELETED     
      00733  602425432563     
      00734  252460606060     
      00735  454645407125     DIAGC7 BCI     8,NON-ZERO 'RELLOC' ACCESSING WRITE-ONLY FILE $    
      00736  514660145125     
      00737  434346231460     
      00740  212323256262     
      00741  314527606651     
      00742  316325404645     
      00743  437060263143     
      00744  256053606060     
      00745  536044216731     DIAGC8 BCI     5,$ MAXIMUM LENGTH EXCEEDED
      00746  446444604325     
      00747  452763306025     
      00750  672325252425     
      00751  246060606060     
      00752  536066216260     DIAGC9 BCI     7,$ WAS REMOVED AND MUST BE RETRIEVED  
      00753  512544466525     
      00754  246021452460     
      00755  446462636022     
      00756  256051256351     
      00757  312565252460     
      00760  606060606060     
                              *     
      00761  536045466360     DIAGD1 BCI     2,$ NOT ACTIVE 
      00762  212363316525     
      00763  536047512565     DIAGD2 BCI     5,$ PREVIOUS I/O OUT OF BOUNDS   
      00764  314664626031     
      00765  614660466463     
      00766  604626602246     
      00767  644524626060     
      00770  536022642626     DIAGD3 BCI     3,$ BUFFER TOO SMALL 
      00771  255160634646     
      00772  606244214343     
      00773  536045466360     DIAGD4 BCI     4,$ NOT IN READ STATUS     
      00774  314560512521     
      00775  246062632163     
      00776  646260606060     
      00777  536045466360     DIAGD5 BCI     4,$ NOT IN WRITE STATUS    
1       PRNTER--PRINT ERROR DIAGNOSTICS FOR FILE SYSTEM.                                         PAGE 13    
                  
      01000  314560665131     
      01001  632560626321     
      01002  636462606060     
      01003  536045466022     DIAGD6 BCI     4,$ NO BUFFER ASSIGNED     
      01004  642626255160     
      01005  216262312745     
      01006  252460606060     
      01007  145125434346     DIAGD7 BCI     3,'RELLOC' TOO LARGE 
      01010  231460634646     
      01011  604321512725     
      01012  216363254447     DIAGD8 BCI     6,ATTEMPT TO CHANGE M.F.D. OR U.F.D.   
      01013  636063466023     
      01014  302145272560     
      01015  443326332433     
      01016  604651606433     
      01017  263324336060     
      01020  216363254447     DIAGD9 BCI     8,ATTEMPT TO CHANGE PROTECTED FILE OF ANOTHER USER 
      01021  636063466023     
      01022  302145272560     
      01023  475146632523     
      01024  632524602631     
      01025  432560462660     
      01026  214546633025     
      01027  516064622551     
                              *     
      01030  536021435125     DIAGE2 BCI     6,$ ALREADY EXISTS OR NAME CONFLICT    
      01031  212470602567     
      01032  316263626046     
      01033  516045214425     
      01034  602346452643     
      01035  312363606060     
      01036  536014475146     DIAGE3 BCI     3,$ 'PROTECTED'
      01037  632523632524     
      01040  146060606060     
      01041  536014433145     DIAGE4 BCI     2,$ 'LINKED'   
      01042  422524146060     
      01043  536021435125     DIAGE5 BCI     7,$ ALREADY EXISTS IN OTHER FILE DIRECTORY   
      01044  212470602567     
      01045  316263626031     
      01046  456046633025     
      01047  516026314325     
      01050  602431512523     
      01051  634651706060     
      01052  466330255160     DIAGE6 BCI     6,OTHER FILE DIRECTORY NOT IN M.F.D.   
      01053  263143256024     
      01054  315125236346     
      01055  517060454663     
      01056  603145604433     
      01057  263324336060     
      01060  536045466360     DIAGE7 BCI     2,$ NOT LINKED 
      01061  433145422524     
                              *     
      01062  454660632147     DIAGF1 BCI     7,NO TAPE AVAILABLE ON SPECIFIED CHANNEL     
      01063  256021652131     
      01064  432122432560     
      01065  464560624725     
1       PRNTER--PRINT ERROR DIAGNOSTICS FOR FILE SYSTEM.                                         PAGE 14    
                  
      01066  233126312524     
      01067  602330214545     
      01070  254360606060     
      01071  632147256026     DIAGF2 BCI     5,TAPE FILE CURRENTLY IN USE     
      01072  314325602364     
      01073  515125456343     
      01074  706031456064     
      01075  622560606060     
      01076  432122254360     DIAGF3 BCI     3,LABEL INCORRECT    
      01077  314523465151     
      01100  252363606060     
      01101  444664456360     DIAGF4 BCI     6,MOUNT FAILED, ILLEGAL OPERATION
      01102  262131432524     
      01103  736031434325     
      01104  272143604647     
      01105  255121633146     
      01106  456060606060     
      01107  632147256026     DIAGF5 BCI     4,TAPE FILE DOES NOT EXIST 
      01110  314325602446     
      01111  256260454663     
      01112  602567316263     
      01113  444664456360     DIAGF6 BCI     6,MOUNT FAILED, OPNS. DIFFICULTIES     
      01114  262131432524     
      01115  736046474562     
      01116  336024312626     
      01117  312364436331     
      01120  256260606060     
      01121  442123303145     DIAGF7 BCI     5,MACHINE ERROR OR BAD STATUS    
      01122  256025515146     
      01123  516046516022     
      01124  212460626321     
      01125  636462606060     
      01126  146445316345     DIAGF8 BCI     7,'UNITNO'-'AUTHNO' CONFLICT FOR TAPE FILE   
      01127  461440142164     
      01130  633045461460     
      01131  234645264331     
      01132  236360264651     
      01133  606321472560     
      01134  263143256060     
                              *     
      01135  644542454666     DIAGI0 BCI     4,UNKNOWN I/O ERROR CODE   
      01136  456031614660     
      01137  255151465160     
      01140  234624256060     
      01141  472151316370     DIAGI1 BCI     6,PARITY ERROR READING OR WRITING $    
      01142  602551514651     
      01143  605125212431     
      01144  452760465160     
      01145  665131633145     
      01146  276053606060     
      01147  262163214360     DIAGI2 BCI     6,FATAL ERROR READING OR WRITING FILE  
      01150  255151465160     
      01151  512521243145     
      01152  276046516066     
      01153  513163314527     
      01154  602631432560     
1       PRNTER--PRINT ERROR DIAGNOSTICS FOR FILE SYSTEM.                                         PAGE 15    
                  
      01155  216521314321     DIAGI3 BCI     6,AVAILABLE SPACE ON DEVICE EXHAUSTED  
      01156  224325606247     
      01157  212325604645     
      01160  602425653123     
      01161  256025673021     
      01162  646263252460     
      01163  632147256026     DIAGI4 BCI     7,TAPE FILE NOT MOUNTED OR NOT AVAILABLE     
      01164  314325604546     
      01165  636044466445     
      01166  632524604651     
      01167  604546636021     
      01170  652131432122     
      01171  432560606060     
      01172  314343252721     DIAGI5 BCI     5,ILLEGAL I/O REQUEST FOR DEVICE 
      01173  436031614660     
      01174  512550642562     
      01175  636026465160     
      01176  242565312325     
      01177  253346336333     DIAGI6 BCI     4,E.O.T. PASSED, WRITING $ 
      01200  604721626225     
      01201  247360665131     
      01202  633145276053     
                              * ROUTINES TO DO THE WORK OF DEFBC AND OCABC    
      01203  0560 00 0 01270  DEFBC  LDQ     =0 
      01204 -0500 60 4 00001         CAL*    1,4
      01205  0225 06 0 01272         VDP     =1E4B29,,6     
      01206  0225 06 0 01273         VDP     =1E3B23,,6     
      01207  0225 06 0 01274         VDP     =100B17,,6     
      01210  0225 06 0 01275         VDP     =10B11,,6
      01211  0225 06 0 01276         VDP     =1B5,,6  
      01212  0131 00 0 00000         XCA  
      01213  0020 00 4 00001         TRA     1,4
      01214  0636 00 4 01225  OCABC  SCA     CLOC4,4  
      01215 -0500 60 4 00001         CAL*    1,4
      01216 -0765 00 0 00017         LGR     15 
      01217  0500 00 0 01271         CLA     =H00000  
      01220  0774 00 4 00005         AXT     5,4
      01221  0767 00 0 00003  CLOC1  ALS     3  
      01222 -0763 00 0 00003         LGL     3  
      01223  2 00001 4 01221         TIX     CLOC1,4,1
      01224 -0760 00 0 00003         SSM                   TO PRESERVE BLANK  
      01225 -0774 00 4 00000  CLOC4  AXC     --,4     
      01226  0020 00 4 00001         TRA     1,4
                              *     
      01227                   OTBUF  BSS     20            1 OUTPUT LINE BUFFER. NO CHECKING FOR SIZE 
      01253                   DIBUF  BSS     7             2 BUFFER FOR IODIAG. MAY BE OVERWRITTEN.   
      01262  0 00000 0 00000  CALLSW                       NON-ZERO IF USER FUNCTION SHOULD BE CALLED.
      01263  0 00000 0 00000  IR4                          DECREMENT=CALLING IR4    
      01264  0 00000 0 00000  LINZ                         SIZE OF RESULTING LINE.  
      01265  0 00000 0 00000  SAVI                         SAVE LOC FOR INDICATORS. 
      01266  0 00000 0 00000  MASK                         SAVE LOC FOR SPECIFIED MASK    
      01267  0 00000 0 00000  ERRN                         ERROR NUMBER 
                       00016  WRFLXZ EQU     14            WRFLX LINE SIZE FOR LIB VERSION
                      000053  FCHAR  BOOL    000053        DOLLAR SIGN  
                      000200  QTBIT  BOOL    200
                      000100  NRBIT  BOOL    100
1       PRNTER--PRINT ERROR DIAGNOSTICS FOR FILE SYSTEM.                                         PAGE 16    
                  
                      000040  MSBIT  BOOL    40 
                      000020  FNBIT  BOOL    20 
                      000010  RNBIT  BOOL    10 
                      000004  LCBIT  BOOL    04 
                      000002  FSBIT  BOOL    02 
                      000001  CRBIT  BOOL    01 
                      000375  DFMASK BOOL    QTBIT+NRBIT+MSBIT+FNBIT+RNBIT+LCBIT+CRBIT    
                                     END  
                  
        LITERALS  
      01270  000000000000     
      01271  000000000060     
      01272  000002342000     
      01273  000017500000     
      01274  000144000000     
      01275  001200000000     
      01276  010000000000     
      01277  215757575757     
      01300  255151465160     
      01301  345757575757     
      01302  356057575757     
      01303  404057575757     
      01304  555757575757     
      01305  575757575757     
      01306  602163575757     
      01307  602346512560     
      01310  605757575757     
      01311  607426336233     
1       PRNTER--PRINT ERROR DIAGNOSTICS FOR FILE SYSTEM.                                         PAGE 1     
                        POST PROCESSOR ASSEMBLY DATA  
                  
       1312 IS THE FIRST LOCATION NOT USED BY THIS PROGRAM  
                  
0REFERENCES TO DEFINED SYMBOLS      
        403    DNF   271
       1263    IR4     6,   10,   12
          1    LIB     3
        247   CALL    24
        250   CL01   244,  246
          1   COLT     7
        231   CR01      
        236   CR02   232
       1267   ERRN    31,   77,  302
        140   FN01      
        152   FN02   142
        217   FS01      
        231   FS02   220
        301   IOER    54
        200   LC01      
        217   LC02   201,  211
        530   LINK   362,  533
       1264   LINZ   243,  251
       1266   MASK    20,   46,  124,  126,  140,  170
        107   MS01   123
        111   MS02   117
        123   MS03    63
        132   MS04   116
        152   MS05      
        154   MS06      
        162   MS07    65
        135   MSP4   134
        140   MSP5   106,  131
        163   MSP6   167
        167   MSP7    64
        170   MSP8   153,  162
        101   NR01   102
        105   NR02    75
        103   NRP1      
        416   OPEN   322,  421
         17   PR00    14
         36   PR01    41
         43   PR02    40
         61   PR03    60
        236   PR04      
        254   PR05   260
        257   PR06   255
        261   PR07   254
        264   PR08   261,  262
         26   PRP1    22
         44   PRP2      
        253   PRP4   242
        405   PZE1   274
         74   QT01    70
        170   RN01      
        200   RN02   172
1       PRNTER--PRINT ERROR DIAGNOSTICS FOR FILE SYSTEM.                                         PAGE 2     
                        POST PROCESSOR ASSEMBLY DATA  
                  
        265   RT01   252
        266   SAV1     3
        267   SAV2     4
        270   SAV4    11
       1265   SAVI     5,  265
        537  ALLOT   366,  370,  542
        414  ATTAC   316,  417
        440  BUFFE   324,  443
        311  CALLB   311,  403
        403  CALLS    36,   43,   53,  403
        475  CHFIL   350,  500
       1221  CLOC1  1223
       1225  CLOC4  1214
        471  CLOSE   340,  342,  344,  474
          1  CRBIT   231, 1270
       1203  DEFBC    76
        507  DELFL   352,  354,  512
        412  DELMF   314,  415
        566  DIAG0   403,  424
        571  DIAG1   405
        601  DIAG2   406
       1253  DIBUF    27,   30,   34,  143,  147,  175,  205,  210,  224,  301
        404  DNFIO   306
         53  FCHAR   113, 1270
         20  FNBIT    45,  141, 1270
          2  FSBIT   217, 1270
         55  GMESS   273,  275,  300,  305,  310
        306  IOER2   303
        557  IOERT   304,  560,  566
          4  LCBIT   200, 1270
        541  MOUNT   372,  544
        515  MOVFL   356,  520
         40  MSBIT   105,  125,  152, 1270
        100  NRBIT    74,  272,  307, 1270
       1214  OCABC   204,  223
       1227  OTBUF    66,  236,  245,  253
        200  QTBIT    67, 1270
        444  RDFIL   326,  330,  447
         10  RNBIT   171, 1270
        525  SETFL   360,  530
        274  STAND    32
        551  TAPFL   402,  554
        462  TRFIL   336,  465
        543  UMOUN   374,  546
        534  UNLIN   364,  537
        411  UPDAT   320,  346,  414
        406  UPDMF   312,  411
        544  VERIF   376,  400,  547
        452  WRFIL   332,  334,  455
       1262 CALLSW    21,   25,  241
        375 DFMASK    17, 1270
        607 DIAG00   407
        613 DIAG01   410,  441,  526
        617 DIAGA1   411
        623 DIAGA2   412,  414,  420,  431,  477,  510,  516,  524,  531,  534,  541,  543,  555
1       PRNTER--PRINT ERROR DIAGNOSTICS FOR FILE SYSTEM.                                         PAGE 3     
                        POST PROCESSOR ASSEMBLY DATA  
                  
        627 DIAGA3   415,  417
        632 DIAGA4   416
        636 DIAGA5   413
        642 DIAGB1   421,  511,  517,  525
        644 DIAGB2   422
        650 DIAGB3   423
        653 DIAGB4   502,  513
        657 DIAGB5   425,  503,  514
        663 DIAGB6   426,  504
        667 DIAGB7   427
        675 DIAGB8   430
        703 DIAGB9   432,  501,  512,  520,  537
        705 DIAGC1   433,  530,  542
        710 DIAGC2   434,  556
        715 DIAGC3   435,  460,  506
        721 DIAGC4   436
        726 DIAGC5   440,  527,  536,  557
        732 DIAGC6   454
        735 DIAGC7   463,  473
        745 DIAGC8   464
        752 DIAGC9   442
        761 DIAGD1   443,  447,  455,  465,  474
        763 DIAGD2   444,  452,  461,  470,  475
        770 DIAGD3   445
        773 DIAGD4   450
        777 DIAGD5   456,  466
       1003 DIAGD6   451,  457,  467
       1007 DIAGD7   471
       1012 DIAGD8   500
       1020 DIAGD9   505
       1030 DIAGE2   507,  533,  554
       1036 DIAGE3   515,  522
       1041 DIAGE4   521,  532
       1043 DIAGE5   523
       1052 DIAGE6   535
       1060 DIAGE7   540
       1062 DIAGF1   544
       1071 DIAGF2   546
       1076 DIAGF3   553
       1101 DIAGF4   551
       1107 DIAGF5   547
       1113 DIAGF6   552
       1121 DIAGF7   550
       1126 DIAGF8   545
       1135 DIAGI0   404
       1141 DIAGI1   560
       1147 DIAGI2   561
       1155 DIAGI3   562
       1163 DIAGI4   563
       1172 DIAGI5   564
       1177 DIAGI6   565
          0 IODIAG    26
        271 NFOUND    42,   52,   56,  276
         72 NOCALL    35,  403
          7 NOIOER   303,  566
1       PRNTER--PRINT ERROR DIAGNOSTICS FOR FILE SYSTEM.                                         PAGE 4     
                        POST PROCESSOR ASSEMBLY DATA  
                  
          3 PRNTER     0
        407 PZE100   276,  277
        411 PZE999   276,  411
        276 STAND1    33
          2 WRFLXA   256,  263
         16 WRFLXZ   254,  257,  260, 1270
                  
0 NO ERROR IN ABOVE ASSEMBLY. 




  PRFL   BCD 06/25/69 2048.3    5510         00000    
1      PRFULL - MAD CALL TO PRINT 12-BIT LINES  D.A. ANDERSON  01/19/69          06/21/69 1833.5 PAGE 1     
                  
                       00020         ENTRY   PRFULL        PRINT 12-BIT WITH CR     
                       00023         ENTRY   PRFULA        PRINT 12-BIT WITHOUT CR  
                       00004         ENTRY   PRTCHR        INTERCEPT OUTPUT CHARACTERS    
                       00011         ENTRY   -PRMESS       TO AVOID LOADING   
                       00014         ENTRY   -PRMESA          EXTRA ROUTINES  
                  
                                     EXTERN  WRFLX,WRFLXA   
                  
                  
      00000  665126436760     WRFLX 
      00001  665126436721     WRFLXA
                  
                  
                       00034  OUTLEN EQU     28            MAXIMUM LENGTH OF OUTPUT LINE  
                  
                  
                  
      00004  0600 00 0 00500  PRTCHR STZ     FLAG          RESET INTERCEPT FLAG     
      00005 -0500 00 4 00001         CAL     1,4           GET POSSIBLE ADDRESS OF ROUTINE TO CALL    
      00006  0520 60 4 00001         ZET*    1,4           IF ZERO CONTENTS, TURN FEATURE OFF   
      00007  0621 00 0 00500         STA     FLAG          OTHERWISE, SET NEW ADDRESS     
      00010  0020 00 4 00002         TRA     2,4           GO AWAY
                  
                  
      00011 -0500 00 0 00000  PRMESS CAL     WRFLX         PRINT 6-BIT WITH CR
      00012  0560 00 0 00514         LDQ     BLANKS          ..   
      00013  0020 00 0 00016         TRA     *+3
      00014 -0500 00 0 00001  PRMESA CAL     WRFLXA        PRINT 6-BIT WITHOUT CR   
      00015  0560 00 0 00513         LDQ     NULLS           ..   
      00016 -0625 00 0 00510         STL     STRAIT        IGNORE 'ESCAPE' SEQUENCES
      00017  0020 00 0 00027         TRA     PR 
                  
      00020 -0500 00 0 00000  PRFULL CAL     WRFLX         PRINT 12-BIT WITH CR     
      00021  0560 00 0 00514         LDQ     BLANKS          ..   
      00022  0020 00 0 00025         TRA     *+3
      00023 -0500 00 0 00001  PRFULA CAL     WRFLXA        PRINT 12-BIT WITHOUT CR  
      00024  0560 00 0 00513         LDQ     NULLS           ..   
      00025  0600 00 0 00510         STZ     STRAIT        INTERPRET 'ESCAPE' SEQUENCES   
      00026  0600 00 0 00475         STZ     UC            START OUT IN LOWER CASE  
                  
      00027  0621 00 0 00121  PR     STA     WRFX          COMMON CODE NOW, SAVE FINAL CALL     
      00030 -0600 00 0 00507         STQ     PADDNG          AND CHARACTERS TO PAD WITH   
      00031  0604 00 0 00474         STI     SI            SAVE INDICATORS, AND     
      00032  0636 00 1 00131         SCA     XR1,1           ALL INDEX REGISTERS    
      00033  0636 00 2 00130         SCA     XR2,2           ..   
      00034  0636 00 3 00127         SCA     XR3,3           ..   
      00035  0774 00 2 00000         AXT     0,2             AND MULTIPLE TAG MODE (UGH) FLAG   
      00036 -0774 00 3 00001         AXC     1,3             ..   
      00037  0634 00 2 00476         SXA     MTM,2           ..   
      00040  0760 00 0 00016         LMTM                  GOOD RIDDANCE
      00041  0520 00 0 00476         ZET     MTM           IF WE DIDN'T BEFORE,     
      00042  0636 00 3 00127         SCA     XR3,3           SAVE XR3   
      00043  0636 00 4 00126         SCA     XR4,4           ..   
      00044  0636 00 5 00125         SCA     XR5,5           ..   
      00045  0636 00 6 00124         SCA     XR6,6           ..   
      00046  0636 00 7 00123         SCA     XR7,7           ..   
1      PRFULL - MAD CALL TO PRINT 12-BIT LINES  D.A. ANDERSON  01/19/69          06/21/69 1833.5 PAGE 2     
                  
      00047  0636 00 4 00136         SCA     RETURN,4      SAVE CALLING SEQUENCE LOCATION 
      00050  0600 00 0 00506         STZ     SWCNT         CLEAR FLAGS  
      00051  0600 00 0 00502         STZ     ALLIN           ..   
      00052  0600 00 0 00503         STZ     ESCHR           ..   
      00053  0600 00 0 00505         STZ     NESCF           ..   
      00054  0774 00 3 00000         AXT     0,3           BEGIN WITH NEW WORD
      00055  0774 00 1 00000         AXT     0,1             FROM NEW ARGUMENT
                  
      00056 -0520 00 0 00500  SENDCH NZT     FLAG          IS FEATURE ENABLED 
      00057  0020 00 0 00071         TRA     LOOP1           NO, OUTPUT TO CONSOLE  
      00060  0074 00 4 00137         TSX     CHAR,4        GET NEXT CHARACTER 
      00061  0 00000 0 00123                 XR7           QUICK EXIT WHEN DONE     
      00062  0602 00 0 00501         SLW     TEMP          DUMP INTO TEMPORARY
      00063 -0600 00 0 00477         STQ     SMQ           SAVE REMAINING CHARS. FROM MQ  
      00064 -0774 00 4 00065         AXC     *+1,4         SIMULATE A TSX*    
      00065  0020 60 0 00500         TRA*    FLAG          GIVE AWAY THIS CHAR.     
      00066  3 00000 0 00501         PAR     TEMP            ..   
      00067  0560 00 0 00477         LDQ     SMQ           RESTORE NEXT CHARS. TO MQ
      00070  0020 00 0 00056         TRA     SENDCH        WHIRRR 
                  
      00071  0774 00 5 00034  LOOP1  AXT     OUTLEN,5      SET OUTPUT BUFFER LENGTH 
      00072 -0774 00 6 00030  LOOP2  AXC     24,6            AND SHIFT FOR FIRST CHAR.    
      00073  0441 00 0 00551         LDI     =0            CLEAR GARBAGE
      00074  0074 00 4 00137  LOOP3  TSX     CHAR,4        GET NEXT CHARACTER (ALREADY ESCAPED) 
      00075  0 00000 0 00107                 DONE          HERE IF NOTHING LEFT     
      00076  0767 00 6 00000         ALS     ,6            SHIFT TO POSITION  
      00077  0043 00 0 00000         OAI                     AND ADD TO OUTPUT
      00100 -3 00000 6 00102         TXL     *+2,6,0       IS THIS WORD FULL.Q.     
      00101  1 00014 6 00074         TXI     LOOP3,6,12      NO, DECREMENT SHIFT    
      00102  0604 00 5 00551         STI     OUTBUF+OUTLEN,5   YES, ADD TO BUFFER   
      00103  2 00001 5 00072         TIX     LOOP2,5,1     GO BACK IF MORE ROOM,    
      00104  0074 00 4 00001         TSX     WRFLXA,4        OTHERWISE MAKE SOME.   
      00105 -1 00034 0 00515         MON     OUTBUF,,OUTLEN   (MON FOR 12-BIT OUTPUT)     
      00106  0020 00 0 00071         TRA     LOOP1         START OVER AGAIN   
                  
      00107 -3 00000 6 00111  DONE   TXL     *+2,6,0       DONE, IS THIS WORD EMPTY.Q.    
      00110 -3 77750 6 00117         TXL     DONE1,6,-24     YES, DON'T PAD IT
      00111 -0754 00 0 00000         ZAC                     ..   
      00112  0560 00 0 00507         LDQ     PADDNG        PAD PARTIAL WORD WITH NULLS    
      00113 -0763 00 6 00014         LGL     12,6            ..   
      00114  0043 00 0 00000         OAI                     ..   
      00115  0604 00 5 00551         STI     OUTBUF+OUTLEN,5   .. 
      00116  1 77743 5 00120         TXI     *+2,5,-OUTLEN-1 COMPUTE LENGTH OF BUFFER     
      00117  1 77744 5 00120  DONE1  TXI     *+1,5,-OUTLEN COMPUTE LENGTH OF BUFFER 
      00120 -0636 00 5 00122         SCD     *+2,5         SET COUNT IN CALL, AND   
      00121  0074 00 4 00000  WRFX   TSX     **,4            WRITE FINAL BUFFER     
      00122 -1 00000 0 00515         MON     OUTBUF,,**      (MON FOR 12-BIT OUTPUT)
                  
      00123 -0774 00 7 00000  XR7    AXC     **,7          RESTORE THE MACHINE
      00124 -0774 00 6 00000  XR6    AXC     **,6            ..   
      00125 -0774 00 5 00000  XR5    AXC     **,5            ..   
      00126 -0774 00 4 00000  XR4    AXC     **,4            ..   
      00127 -0774 00 3 00000  XR3    AXC     **,3            ..   
      00130 -0774 00 2 00000  XR2    AXC     **,2            ..   
      00131 -0774 00 1 00000  XR1    AXC     **,1            ..   
      00132  0761 00 0 00000  XR0    NOP                     (FOR EFFECTIVE ADDRESS COMPUTATIONS)     
1      PRFULL - MAD CALL TO PRINT 12-BIT LINES  D.A. ANDERSON  01/19/69          06/21/69 1833.5 PAGE 3     
                  
      00133  0441 00 0 00474         LDI     SI              ..   
      00134  0520 00 0 00476         ZET     MTM           IF WE MUST ...     
      00135 -0760 00 0 00016         EMTM                    BLEUGH     
      00136  0020 00 0 00000  RETURN TRA     **            AWAY WE GO   
1      PRFULL - MAD CALL TO PRINT 12-BIT LINES  D.A. ANDERSON  01/19/69          06/21/69 1833.5 PAGE 4     
                  
                                         CHAR - PRODUCE NEXT (ESCAPED) CHARACTER    
                  
      00137  0520 00 0 00502  CHAR   ZET     ALLIN         IF NO MORE INPUT,  
      00140  0020 60 4 00001         TRA*    1,4             SAY SO.    
      00141  0634 00 4 00164         SXA     CX4,4         SAVE RETURN  
      00142 -0500 00 0 00503  CHR1   CAL     ESCHR         IS THERE ANY LEFT-OVER JUNK    
      00143  0100 00 0 00147         TZE     *+4             NO, SKIP   
      00144 -0320 00 0 00554         ANA     =O77            YES, REMOVE POSSIBLE GARBAGE 
      00145  0600 00 0 00503         STZ     ESCHR           RESET IT   
      00146  0020 00 0 00153         TRA     CHAR1           AND PROCESS IT   
      00147  0074 00 4 00377         TSX     GTC,4         GET NEXT CHARACTER 
      00150  0 00000 0 00166                 CFINIS          HERE IF NONE LEFT
      00151  0520 00 0 00504         ZET     NESC1         ARE WE LOOKING FOR ESCAPES     
      00152  0020 00 0 00164         TRA     CX4             NO, JUST RETURN  
      00153  0737 00 7 00000  CHAR1  PAC     ,7              YES, SAVE THE CHAR.    
      00154  0322 00 0 00511         ERA     ESCH          IS IT THE ESCAPE CHAR.Q. 
      00155  0100 00 0 00202         TZE     ESCAPE        YES, START ESCAPE SEQUENCE     
      00156  0500 00 7 00277  SHIFT  CLA     CHR,7         NO, IS IT ALPHABETIC     
      00157 -0120 00 0 00170         TMI     CASE            YES, WORRY ABOUT CASE  
      00160  0756 00 7 00000  CHAR2  PCA     ,7            RESTORE TO AC
      00161  0322 00 0 00512         ERA     NULL          IS IT NULL.Q.
      00162  0100 00 0 00142         TZE     CHR1            YES, TRY AGAIN   
      00163  0756 00 7 00000         PCA     ,7              NO, GET IT BACK AGAIN  
      00164  0774 00 4 00000  CX4    AXT     **,4              AND RETURN IT  
      00165  0020 00 4 00002         TRA     2,4                 ..     
                  
      00166  0522 00 0 00164  CFINIS XEC     CX4           IF NOTHING LEFT,   
      00167  0020 60 4 00001         TRA*    1,4             TAKE 'DONE' RETURN     
                  
      00170  0500 00 0 00506  CASE   CLA     SWCNT         ARE WE SWITCHING CASE    
      00171 -0100 00 0 00175         TNZ     CASE1           YES, GO WORRY    
      00172 -0520 00 0 00475         NZT     UC              NO, IF FLAG IS OFF,    
      00173  1 77700 7 00160         TXI     CHAR2,7,-64     MAKE IT LOWER    
      00174  0020 00 0 00160         TRA     CHAR2    
      00175  0402 00 0 00552  CASE1  SUB     =1              YES, REDUCE COUNT
      00176  0601 00 0 00506         STO     SWCNT             .. 
      00177  0520 00 0 00475         ZET     UC              THEN IF FLAG IS ON,    
      00200  1 77700 7 00160         TXI     CHAR2,7,-64     MAKE LOWER.
      00201  0020 00 0 00160         TRA     CHAR2             .. 
                  
      00202  0074 00 4 00377  ESCAPE TSX     GTC,4         HERE FOR ESCAPE SEQUENCE, GET NEXT CHAR.   
      00203  0 00000 0 00166                 CFINIS          IF NONE, IGNORE THE PROBLEM  
      00204  0100 00 0 00220         TZE     OCTESC        IF CHAR. IS ZERO   
      00205  0737 00 7 00000         PAC     ,7              ..   
      00206  3 77770 7 00220         TXH     OCTESC,7,-8   OR 1 THRU 7, TRY OCTAL SEQ.    
      00207  0500 00 7 00277         CLA     CHR,7         PICK UP EQUIVALENCE
      00210  0737 00 7 00000         PAC     ,7              AND SAVE IT
      00211  0767 00 0 00001         ALS     1             IS THIS ONE SPECIAL.Q.   
      00212 -0760 00 0 00001         PBT                     ..   
      00213  0020 00 0 00216         TRA     *+3             NO.  
      00214  0522 00 7 00266         XEC     SPESHL,7        YES, EXECUTE FUNCTION  
      00215  0020 00 0 00142         TRA     CHR1              THEN GET NEXT CHAR.  
      00216 -3 77700 7 00163         TXL     CX4-1,7,-64   IF NOT IN TABLE, JUST LEAVE    
      00217  0020 00 0 00156         TRA     SHIFT         OTHERWISE, CHECK CASE SHIFT    
1      PRFULL - MAD CALL TO PRINT 12-BIT LINES  D.A. ANDERSON  01/19/69          06/21/69 1833.5 PAGE 5     
                  
      00220  0767 00 0 00014  OCTESC ALS     12            SAVE THIS CHAR     
      00221  0602 00 0 00503         SLW     ESCHR           ..   
      00222  0074 00 4 00377         TSX     GTC,4         GET NEXT CHAR
      00223  0 00000 0 00166                 CFINIS          IF NOTHING THERE, VANISH     
      00224 -0340 00 0 00553         LAS     =8            IS IT OCTAL  
      00225  0020 00 0 00251         TRA     SWESC           NO, GO PROCESS IT
      00226  0020 00 0 00251         TRA     SWESC             .. 
      00227  0767 00 0 00006         ALS     6               YES, SAVE IT AND 
      00230 -0602 00 0 00503         ORS     ESCHR             .. 
      00231  0074 00 4 00377         TSX     GTC,4           LOOK FOR OCTAL ESCAPE  
      00232  0 00000 0 00246                 UNESC             .. 
      00233 -0340 00 0 00553         LAS     =8            IS THIRD CHAR OCTAL
      00234  0020 00 0 00255         TRA     SWESC1          NO, MUST OUTPUT  
      00235  0020 00 0 00255         TRA     SWESC1            TWO EXCESS CHARS     
      00236 -0501 00 0 00503         ORA     ESCHR           YES, FORM RESULT CHAR  
      00237 -0765 00 0 00003         LGR     3                 .. 
      00240  0771 00 0 00003         ARS     3                 .. 
      00241 -0765 00 0 00003         LGR     3                 .. 
      00242  0771 00 0 00003         ARS     3                 .. 
      00243 -0763 00 0 00006         LGL     6                 .. 
      00244  0600 00 0 00503         STZ     ESCHR           RESET SEQUENCE   
      00245  0020 00 0 00164         TRA     CX4               AND RETURN     
                  
      00246 -0625 00 0 00502  UNESC  STL     ALLIN         REMEMBER INPUT DONE
      00247 -0500 00 0 00503         CAL     ESCHR         RECALL THE COUNT AND LAST CHAR 
      00250  0020 00 0 00253         TRA     *+3             ..   
      00251  0767 00 0 00006  SWESC  ALS     6             POSITION NEW CHAR  
      00252 -0501 00 0 00503         ORA     ESCHR         RECALL THE COUNT   
      00253  0600 00 0 00503         STZ     ESCHR         RESET EVERYTHING   
      00254  0020 00 0 00257         TRA     *+3             ..   
      00255 -0602 00 0 00503  SWESC1 ORS     ESCHR         SAVE LATEST CHAR   
      00256 -0500 00 0 00503         CAL     ESCHR           AND RECALL COUNT AND PREVIOUS ONE  
      00257  0771 00 0 00006         ARS     6             POSITION CHAR. TO OUTPUT 
      00260  0737 00 7 00000         PAC     ,7            SAVE IT
      00261  0771 00 0 00006         ARS     6               AND SET UP 
      00262  0602 00 0 00506         SLW     SWCNT           SWITCH COUNT     
      00263  0756 00 7 00000         PCA     ,7            RESTORE CHARACTER, 
      00264 -0320 00 0 00554         ANA     =O77            REMOVE GARBAGE,  
      00265  0020 00 0 00153         TRA     CHAR1           AND RETURN.
                  
      00266  0774 00 3 00000  SPESHL AXT     0,3           '8 - GO TO NEXT WORD IN ARGUMENT     
      00267  0020 00 0 00166         TRA     CFINIS        '9 - STOP    
      00270  0600 00 0 00475         STZ     UC            'L - LOWER CASE    
      00271 -0625 00 0 00475         STL     UC            'U - UPPER CASE    
      00272  0020 00 0 00273         TRA     NESC          'X - END THIS ARG. + DON'T ESCAPE NEXT     
                  
      00273  0774 00 3 00000  NESC   AXT     0,3           FINISH THIS WORD   
      00274  0774 00 1 00000         AXT     0,1             AND THIS ARGUMENT
      00275 -0625 00 0 00505         STL     NESCF         INHIBIT ESCAPING   
      00276  0020 00 0 00142         TRA     CHR1            ..   
1      PRFULL - MAD CALL TO PRINT 12-BIT LINES  D.A. ANDERSON  01/19/69          06/21/69 1833.5 PAGE 6     
                  
      00277 +000000000000     CHR    OCT     0,1,2,3       'NNN = OCTAL ESCAPE, OR 'N = SWITCH CASE   
      00303 +000000000004            OCT     4,5,6,7         OF NEXT N ALPHABETIC CHARACTERS.   
      00307  2 00000 0 00000         PTW     0             '8 = GO TO NEXT WORD IN ARGUMENT     
      00310  2 00000 0 00001         PTW     1             '9 = STOP    
      00311 +000000000057            OCT     57            (ILLEGAL)    
      00312 +000000000137            OCT     137           '= = QUOTE   
      00313 +000000000014            OCT     14            '' = ' 
      00314 +000000000057            OCT     57,57,57      (ILLEGAL)    
      00317 +000000000120            OCT     120           '+ = AMPERSAND     
      00320 -000000000106            OCT     -106          'A = AT SIGN 
      00321 -000000000132            OCT     -132          'B = BLACK RIBBON SHIFT  
      00322 -000000000023            OCT     -23           C
      00323 -000000000024            OCT     -24           D
      00324 -000000000025            OCT     -25           E
      00325 -000000000117            OCT     -117          'F = P-OFF   
      00326 -000000000027            OCT     -27           G
      00327 -000000000116            OCT     -116          'H = HANG    
      00330 -000000000031            OCT     -31           I
      00331 +000000000057            OCT     57            (ILLEGAL)    
      00332 +000000000114            OCT     114           '. = EXCLAMATION POINT   
      00333 +000000000155            OCT     155           ') = GREATER 
      00334 +000000000135            OCT     135           'COLON = BACKSPACE 
      00335 +000000000057            OCT     57,57         (ILLEGAL)    
      00337 +000000000140            OCT     140           '- = UNDERLINE     
      00340 -000000000041            OCT     -41           J
      00341 -000000000042            OCT     -42           K
      00342 -2 00000 0 00002         MTW     2             'L = LOWER CASE    
      00343 -000000000044            OCT     -44           M
      00344 -000000000104            OCT     -104          'N = NUMBER SIGN   
      00345 -000000000175            OCT     -175          'O = P-ON    
      00346 -000000000105            OCT     -105          'P = PER CENT
      00347 -000000000156            OCT     -156          'Q = QUESTION MARK 
      00350 -000000000133            OCT     -133          'R = RED RIBBON SHIFT    
      00351 +000000000052            OCT     52            (FORM FEED)  
      00352 +000000000053            OCT     53            ($)    
      00353 +000000000055            OCT     55            '* = CARRIAGE RETURN     
      00354 +000000000055            OCT     55            (CARRIAGE RETURN)  
      00355 +000000000057            OCT     57,57         (ILLEGAL)    
      00357 +000000000057            OCT     57            'SPACE = NULL
      00360 +000000000102            OCT     102           '/ = BACKSLASH OR CENT SIGN    
      00361 -000000000053            OCT     -53           'S = $ 
      00362 -000000000072            OCT     -72           'T = TAB     
      00363 -2 00000 0 00003         MTW     3             'U = UPPER CASE    
      00364 -000000000100            OCT     -100          'V = VERTICAL BAR  
      00365 -000000000066            OCT     -66           W
      00366 -2 00000 0 00004         MTW     4             'X = END ARG. + DON'T ESCAPE NEXT    
      00367 -000000000070            OCT     -70           Y
      00370 -000000000071            OCT     -71           Z
      00371 +000000000072            OCT     72            (TAB)  
      00372 +000000000103            OCT     103           ', = SEMICOLON     
      00373 +000000000152            OCT     152           '( = LESS    
      00374 +000000000057            OCT     57,57,57      (ILLEGAL)    
1      PRFULL - MAD CALL TO PRINT 12-BIT LINES  D.A. ANDERSON  01/19/69          06/21/69 1833.5 PAGE 7     
                  
      00377  2 00001 3 00407  GTC    TIX     GTC1,3,1      IS ANYTHING LEFT IN THE MQ.Q.  
      00400 -2 00001 1 00416         TNX     MORINP,1,1      NO, IS THERE ANOTHER WORD    
      00401  1 00000 2 00402  BUMP   TXI     *+1,2,**          YES, MOVE POINTER    
      00402 -0500 00 2 00000         CAL     0,2                 AND LOAD IT  
      00403  0322 00 0 00561         ERA     =O777777777777     IS IT A FENCE 
      00404  0100 00 0 00416         TZE     MORINP              YES, GO TO NEXT ARGUMENT 
      00405  0560 00 2 00000         LDQ     0,2                 NO, LOAD IT  
      00406  0774 00 3 00006         AXT     6,3               REFRESH CHARACTER COUNT    
      00407 -0754 00 0 00000  GTC1   ZAC                   CLEAR GARBAGE AND  
      00410 -0763 00 0 00006         LGL     6               ISOLATE THE CHARACTER  
      00411  0737 00 7 00000         PAC     ,7            SAVE CHARACTER     
      00412  0322 00 0 00512         ERA     NULL          IF IT IS A NULL,   
      00413  0100 00 0 00377         TZE     GTC             FLUSH IT.  
      00414  0756 00 7 00000         PCA     ,7            RESTORE AND  
      00415  0020 00 4 00002         TRA     2,4             RETURN IT. 
                  
      00416  0600 00 0 00504  MORINP STZ     NESC1         RESET 'NO ESCAPE' FLAG   
      00417 -0520 00 0 00510         NZT     STRAIT        IF CALL WAS TO PRMESS OR PRMESA
      00420  0520 00 0 00505         ZET     NESCF           OR WE SAW A 'X,  
      00421 -0625 00 0 00504         STL     NESC1           DON'T PROCESS ESCAPES IN NEW ARGUMENT    
      00422  0600 00 0 00505         STZ     NESCF         RESET 'X FLAG
      00423  0535 00 7 00136         LAC     RETURN,7      RECOVER CALLING SEQ. LOCATION  
      00424  1 77777 7 00425         TXI     *+1,7,-1      MOVE TO NEXT WORD  
      00425  0636 00 7 00136         SCA     RETURN,7        AND SAVE FOR NEXT TIME 
      00426  0500 00 7 00000         CLA     0,7           PICK UP POSSIBLE ARGUMENT
      00427 -0120 60 4 00001         TMI*    1,4           END OF C.S. IF NEGATIVE  
      00430  0737 00 2 00000         PAC     ,2            SAVE ADDRESS 
      00431 -0765 00 0 00022         LGR     18            TEST LEFT HALF FOR 
      00432  0100 00 0 00465         TZE     EFARG           PZE  
      00433  0322 00 0 00555         ERA     =O76100           OR 
      00434  0100 00 0 00465         TZE     EFARG           EFA  
      00435 -0763 00 0 00003         LGL     3               ..   
      00436 -0320 00 0 00560         ANA     =O7000007     TEST PREFIX  
      00437  0322 00 0 00557         ERA     =O3000000       AND TAG FOR
      00440  0100 00 0 00457         TZE     PARG              PAR OR   
      00441  0322 00 0 00556         ERA     =O1000000         BLK,     
      00442 -0100 60 4 00001         TNZ*    1,4             OTHERWISE, END OF C.S. 
                  
      00443 -0500 00 7 00000         CAL     0,7           PROCESS 'BLK' ARGUMENT   
      00444 -0737 00 7 00000         PDC     ,7              ..   
      00445  0500 00 7 00000         CLA     0,7           GET COUNT    
      00446  0734 00 1 00000         PAX     ,1              INTO XR1   
      00447 -3 00000 1 00416         TXL     MORINP,1,0    IGNORE ARGUMENT IF ZERO  
      00450  0774 00 7 00001         AXT     1,7           ASSUME STORED BACKWARD   
      00451  0120 00 0 00453         TPL     *+2           IF COUNT IS NEGATIVE,    
      00452 -0774 00 7 00001         AXC     1,7             OTHER WAY, PLEASE
      00453 -0634 00 7 00401  STBMP  SXD     BUMP,7        SET LOCATION INCREMENT   
      00454  0774 00 3 00007         AXT     7,3             AND CHARACTER COUNT    
      00455  0560 00 2 00000         LDQ     0,2           GET FIRST WORD     
      00456  0020 00 0 00377         TRA     GTC             AND START PROCESSING   
                  
      00457 -0500 00 7 00000  PARG   CAL     0,7           PROCESS 'PAR' ARGUMENT   
      00460  0774 00 7 00001         AXT     1,7           ASSUME BACKWARD    
      00461 -0734 00 1 00000         PDX     ,1            GET COUNT    
      00462 -3 37777 1 00453         TXL     STBMP,1,16383 POSITIVE IF .L. INFINITY/2     
      00463 -0737 00 1 00000         PDC     ,1            NEGATIVE, GET COMPLEMENT 
1      PRFULL - MAD CALL TO PRINT 12-BIT LINES  D.A. ANDERSON  01/19/69          06/21/69 1833.5 PAGE 8     
                  
      00464  1 77776 7 00453         TXI     STBMP,7,-2      AND TAKE IT FORWARD    
                  
      00465 -0763 00 0 00003  EFARG  LGL     3             PROCESS 'PZE' OR 'EFA'   
      00466  0734 00 7 00000         PAX     ,7            GET TAG
      00467 -0763 00 0 00017         LGL     15              AND ADDRESS
      00470  0401 00 7 00132         ADM     XR0,7         COMPUTE EFFECTIVE ADDRESS,     
      00471  0737 00 2 00000         PAC     ,2              ..   
      00472  0774 00 1 00000         AXT     0,1             TAKE ONLY ONE WORD.    
      00473  0020 00 0 00454         TRA     STBMP+1         ..   
                  
                  
                  
      00474  0 00000 0 00000  SI                           CONTAINS SAVED SENSE INDICATORS
      00475  0 00000 0 00000  UC                           NON-ZERO FOR UPPER CASE  
      00476  0 00000 0 00000  MTM                          MULTIPLE TAG MODE FLAG   
      00477  0 00000 0 00000  SMQ                          SAVED MQ REGISTER  
      00500  0 00000 0 00000  FLAG                         FEATURE ENABLED WHEN NON-ZERO  
      00501  0 00000 0 00000  TEMP                         STORE CHARACTER HERE     
      00502  0 00000 0 00000  ALLIN                        INPUT RAN OUT DURING OCTAL ESCAPE IF .NE. 0
      00503  0 00000 0 00000  ESCHR                        PARTIAL ESCAPE SEQUENCE  
      00504  0 00000 0 00000  NESC1                        NO ESCAPES THIS ARG. IF NOT ZERO     
      00505  0 00000 0 00000  NESCF                        NO ESCAPES NEXT ARG. IF NOT ZERO     
      00506  0 00000 0 00000  SWCNT                        COUNT OF ALPHA CHARS TO SWITCH CASE OF     
      00507  0 00000 0 00000  PADDNG                       CHARS. TO PAD FINAL WORD WITH  
      00510  0 00000 0 00000  STRAIT                       NO ESCAPES IF NOT ZERO   
                  
                      000057  NUL    BOOL    57            NULL CHARACTER     
                      000060  BLANK  BOOL    60            BLANK CHARACTER    
                  
      00511 +000000000014     ESCH   OCT     14            'ESCAPE' CHARACTER (')   
      00512  000000000057     NULL   VFD     36/NUL        SINGLE NULL  
      00513  005700570057     NULLS  VFD     12/NUL,12/NUL,12/NUL WORD OF NULLS     
      00514  006000600060     BLANKS VFD     12/BLANK,12/BLANK,12/BLANK WORD OF BLANKS    
                  
      00515                   OUTBUF BSS     OUTLEN        HOLDS OUTPUT LINES 
                  
                                     END  
                  
        LITERALS  
      00551  000000000000     
      00552  000000000001     
      00553  000000000010     
      00554  000000000077     
      00555  000000076100     
      00556  000001000000     
      00557  000003000000     
      00560  000007000007     
      00561  777777777777     
1      PRFULL - MAD CALL TO PRINT 12-BIT LINES  D.A. ANDERSON  01/19/69          06/21/69 1833.5 PAGE 1     
                        POST PROCESSOR ASSEMBLY DATA  
                  
        562 IS THE FIRST LOCATION NOT USED BY THIS PROGRAM  
                  
0REFERENCES TO DEFINED SYMBOLS      
         27     PR    17
        474     SI    31,  133
        475     UC    26,  172,  177,  270,  271
        277    CHR   156,  207
        164    CX4   141,  152,  166,  216,  245
        377    GTC   147,  202,  222,  231,  413,  456
        476    MTM    37,   41,  134
         57    NUL   511,  512,  513
        477    SMQ    63,   67
        132    XR0   470
        131    XR1    32
        130    XR2    33
        127    XR3    34,   42
        126    XR4    43
        125    XR5    44
        124    XR6    45
        123    XR7    46,   61
        401   BUMP   453
        170   CASE   157
        137   CHAR    60,   74
        142   CHR1   162,  215,  276
        107   DONE    75
        511   ESCH   154
        500   FLAG     4,    7,   56,   65
        407   GTC1   377
        273   NESC   272
        512   NULL   161,  412
        457   PARG   440
        501   TEMP    62,   66
        121   WRFX    27
        502  ALLIN    51,  137,  246
         60  BLANK   511,  514
        175  CASE1   171
        153  CHAR1   146,  265
        160  CHAR2   173,  174,  200,  201
        117  DONE1   110
        465  EFARG   432,  434
        503  ESCHR    52,  142,  145,  221,  230,  236,  244,  247,  252,  253,  255,  256
         71  LOOP1    57,  106
         72  LOOP2   103
         74  LOOP3   101
        504  NESC1   151,  416,  421
        505  NESCF    53,  275,  420,  422
        513  NULLS    15,   24
        156  SHIFT   217
        453  STBMP   462,  464,  473
        506  SWCNT    50,  170,  176,  262
        251  SWESC   225,  226
        246  UNESC   232
          0  WRFLX    11,   20
        514 BLANKS    12,   21
1      PRFULL - MAD CALL TO PRINT 12-BIT LINES  D.A. ANDERSON  01/19/69          06/21/69 1833.5 PAGE 2     
                        POST PROCESSOR ASSEMBLY DATA  
                  
        166 CFINIS   150,  203,  223,  267
        202 ESCAPE   155
        416 MORINP   400,  404,  447
        220 OCTESC   204,  206
        515 OUTBUF   102,  105,  115,  122
         34 OUTLEN     4,   71,  102,  105,  115,  116,  117,  515
        507 PADDNG    30,  112
         23 PRFULA     0
         20 PRFULL     0
         14 PRMESA     0
         11 PRMESS     0
          4 PRTCHR     0
        136 RETURN    47,  423,  425
         56 SENDCH    70
        266 SPESHL   214
        510 STRAIT    16,   25,  417
        255 SWESC1   234,  235
          1 WRFLXA    14,   23,  104
                  
0 NO ERROR IN ABOVE ASSEMBLY. 




  PRMS   BCD 06/25/69 2048.3    1284         00000    
1     FAP ASSEMBLY LISTING  ...  ...  ...        FILE PRMS__ _____FAP___         06/21/69 1833.7 PAGE 1     
                  
                       00004         ENTRY   PRMESS   
                       00006         ENTRY   PRMESA   
                  
                                     EXTERN  WRFLX,WRFLXA   
                  
                  
        TRANSFER VECTOR 
      00000  665126436760     WRFLX 
      00001  665126436721     WRFLXA
                  
            LINKAGE DIRECTOR  
      00002  000000000000     
      00003  475144256262     
                  
                       00016  LINLEN EQU     14            MAX. NO. WORDS TO WRITE IN ONE CALL  
                  
      00004 -0500 00 0 00000  PRMESS CAL     WRFLX         PRMESS ADDS EXTRA CR     
      00005  0020 00 0 00007         TRA     PRX
                  
      00006 -0500 00 0 00001  PRMESA CAL     WRFLXA          PRMESA DOES NOT. 
                  
      00007  0621 00 0 00065  PRX    STA     WRFX     
      00010  0634 00 1 00070         SXA     XR1,1         SAVE WORKING REGISTERS   
      00011  0634 00 2 00071         SXA     XR2,2    
      00012  0634 00 4 00073         SXA     XR4,4    
      00013  0634 00 3 00072         SXA     XR3,3         NEED MORE THAN THREE,    
      00014  0774 00 2 00000         AXT     0,2             SO SAVE 'MULTIPLE TAG MODE' STATUS 
      00015 -0774 00 3 00001         AXC     1,3
      00016  0634 00 2 00101         SXA     MTM,2    
      00017  0760 00 0 00016         LMTM 
      00020  0520 00 0 00101         ZET     MTM
      00021  0634 00 3 00072         SXA     XR3,3    
      00022  0634 00 5 00074         SXA     XR5,5    
                  
      00023  0534 00 1 00073         LXA     XR4,1         FIRST POSSIBLE ARGUMENT  
      00024  1 77777 1 00025         TXI     *+1,1,-1        IS AT '1,4'
      00025  0774 00 4 00016         AXT     LINLEN,4      SET MAXIMUM BUFFER LENGTH
                  
      00026 -0500 00 1 00000  NXARG  CAL     0,1           GET NEXT POSSIBLE ARGUMENT     
      00027 -0737 00 2 00000         PDC     ,2            SAVE COUNT OR POINTER THERETO  
      00030  0737 00 3 00000         PAC     ,3              AND ADDRESS OF DATA    
      00031 -0774 00 5 00001         AXC     1,5           ASSUME DATA WILL BE STORED FORWARD   
      00032 -0320 00 0 00100         ANA     PT            REMOVE ALL BUT PREFIX AND TAG  
      00033  0322 00 0 00102         ERA     PAR           IF 'PAR' WITH ZERO TAG   
      00034  0100 00 0 00054         TZE     HAVPAR          DECR. WAS THE COUNT    
      00035  0322 00 0 00103         ERA     2XOR3         OR IF 'BLK', POINTER TO IT     
      00036 -0100 00 0 00063         TNZ     OUT           ANYTHING ELSE MARKS END OF CALLING SEQ.    
      00037  0500 00 2 00000         CLA     0,2           PICK UP COUNT FOR 'BLK'  
      00040 -0100 00 0 00042         TNZ     *+2           IF IT IS ZERO,     
      00041  1 77777 1 00026         TXI     NXARG,1,-1      IGNORE THIS ARGUMENT.  
      00042 -0120 00 0 00044         TMI     *+2           IF IT IS POSITIVE, 
      00043  0774 00 5 00001  BKWRD  AXT     1,5             DATA IS STORED BACKWARD.     
      00044  0734 00 2 00000         PAX     ,2            PUT COUNT IN INDEX 
      00045 -0634 00 5 00051  SETBMP SXD     BUMP,5          AND SAVE DIRECTION OF DATA   
1     FAP ASSEMBLY LISTING  ...  ...  ...        FILE PRMS__ _____FAP___         06/21/69 1833.7 PAGE 2     
                  
      00046 -0500 00 3 00000  MOVE   CAL     0,3           GET NEXT WORD
      00047  0602 00 4 00122         SLW     LINE+LINLEN,4   INTO OUTPUT LINE 
      00050 -2 00001 4 00057         TNX     DUMP,4,1      TEST FOR FULL BUFFER     
      00051  1 00000 3 00052  BUMP   TXI     *+1,3,**      NOT FULL, MOVE TO NEXT WORD    
      00052  2 00001 2 00046         TIX     MOVE,2,1        IF THERE IS ANY  
      00053  1 77777 1 00026         TXI     NXARG,1,-1    OR TRY NEXT ARGUMENT     
                  
      00054 -3 40000 2 00045  HAVPAR TXL     SETBMP,2,16384 IF 'PAR' COUNT .G. 16384, ASSUME NEG.     
      00055  0756 00 2 00000         PCA     ,2            OTHERWISE, RE-COMPLEMENT COUNT 
      00056  0020 00 0 00043         TRA     BKWRD           AND TAKE DATA BACKWARD 
                  
      00057  0074 00 4 00001  DUMP   TSX     WRFLXA,4      FLUSH FILLED BUFFER
      00060  0 00016 0 00104                 LINE,,LINLEN    ..   
      00061  0774 00 4 00016         AXT     LINLEN,4      RESET BUFFER COUNT 
      00062  0020 00 0 00051         TRA     BUMP            AND FINISH THIS ARGUMENT     
                  
      00063  1 77762 4 00064  OUT    TXI     *+1,4,-LINLEN COMPUTE LENGTH OF LINE   
      00064 -0636 00 4 00066         SCD     *+2,4           AND SET INTO CALL
      00065  0074 00 4 00000  WRFX   TSX     **,4          SEND WITH OR WITHOUT CR  
      00066  0 00000 0 00104                 LINE,,**        ..   
                  
      00067  0636 00 1 00077         SCA     RETURN,1      SET RETURN LOCATION
      00070  0774 00 1 00000  XR1    AXT     **,1            AND RESTORE REGISTERS  
      00071  0774 00 2 00000  XR2    AXT     **,2     
      00072  0774 00 3 00000  XR3    AXT     **,3     
      00073  0774 00 4 00000  XR4    AXT     **,4     
      00074  0774 00 5 00000  XR5    AXT     **,5     
      00075  0520 00 0 00101         ZET     MTM           IF WE WERE IN MULT. TAG MODE   
      00076 -0760 00 0 00016         EMTM                    RE-ENTER IT (UGH)
      00077  0020 00 0 00000  RETURN TRA     **            RETURN TO CALLER   
                  
      00100 -3 00000 7 00000  PT     SVN     0,-1,0   
      00101  0 00000 0 00000  MTM   
      00102  3 00000 0 00000  PAR    PAR     0  
      00103  1 00000 0 00000  2XOR3  ONE  
                  
      00104                   LINE   BSS     LINLEN   
                  
                                     END  
1     FAP ASSEMBLY LISTING  ...  ...  ...        FILE PRMS__ _____FAP___         06/21/69 1833.7 PAGE 1     
                        POST PROCESSOR ASSEMBLY DATA  
                  
        122 IS THE FIRST LOCATION NOT USED BY THIS PROGRAM  
                  
0REFERENCES TO DEFINED SYMBOLS      
        100     PT    32
        101    MTM    16,   20,   75
         63    OUT    36
        102    PAR    33
          7    PRX     5
         70    XR1    10
         71    XR2    11
         72    XR3    13,   21
         73    XR4    12,   23
         74    XR5    22
         51   BUMP    45,   62
         57   DUMP    50
        104   LINE    47,   60,   66
         46   MOVE    52
         65   WRFX     7
        103  2XOR3    35
         43  BKWRD    56
         26  NXARG    41,   53
          0  WRFLX     4
         54 HAVPAR    34
         16 LINLEN     4,   25,   47,   60,   61,   63,  104
          6 PRMESA     0
          4 PRMESS     0
         77 RETURN    67
         45 SETBMP    54
          1 WRFLXA     6,   57
                  
0 NO ERROR IN ABOVE ASSEMBLY. 




  PRNT   BCD 05/29/67 0007.4    1321         00000    
1            FAP                                                                                 PAGE 1     
                  
                              *      PRNTP.(MESS)     
                              *              PRINTS MESSAGE STORED BACKWARD OR FORWARD AND FENCED     
                              * CALLING SEQUENCE
                              * MAD  EXECUTE PRNTP.(MES)    
                              *      EXECUTE PRNTPA.(MES)   
                              *      EXECUTE PRNTPC.(MES)   
                              *      WHERE   MES IS HOLLERITH VECTOR VALUES OF ANY LENGTH 
                              *      THE LAST WORD MUST BE A FENCE
                              *      FENCE = 777777777777K OR 377777777777K   
                              * PRNTP AND PRNTPA PRINT THE MESSAGE ON LINE.   
                              *      A CARRIAGE RETURN IS INSERTED EVERY 14TH WORD. 
                              *      ANOTHER C.R. IS GIVEN AT THE END OF THE MESSAGE IF ONE USES
                              *      PRNTP AND THE FIRST FENCE(ALL 7'S).
                              *      WITH PRNTPA AND EITHER FENCE, OR WITH LATTER FENCE AND     
                              *      EITHER CALL, THERE IS NO C.R. AT THE END.
                              * PRNTPC NEVER INSERTS C.R. USER MUST SUPPLY WHAT HE WISHES.
                              *     
                              * FORTRAN  CALL PRNTP.(NH.........) 
                              *      OR  CALL PRNTPA.(NH........) 
                              *      OR  CALL PRNTPC.(NH........) 
                              *     
                              *FAP   TSX     PRNTP(A OR C),X
                              *      PZE     MES
                              *      RMT  
                              *MES   BCI     N,...... 
                              *      PTH(OR SVN) -1,7,-1    
                              * COMPUTATION CENTER               LOUIS POUZIN 
                              *      OCTOBER 63 
                  
                  
                  
  BINARY CARD NO. PRNTP000    
                       00011         ENTRY   PRNTP    
                       00010         ENTRY   PRNTPA   
                       00005         ENTRY   PRNTPC   
                  
                  
        TRANSFER VECTOR 
                  
  BINARY CARD NO. PRNTP001    
      00000  665126436721     WRFLXA
      00001  665126436760     WRFLX 
      00002  274521446060     GNAM  
                  
            LINKAGE DIRECTOR  
      00003  000000000000     
      00004  475145634760     
                  
                       00003  X4     SYN     *-2
                  
      00005 -0625 00 0 00062  PRNTPC STL     PA 
      00006  0560 00 0 00000         LDQ     $WRFLXA  
      00007  0020 00 0 00012         TRA     J  
      00010 -0625 00 0 00062  PRNTPA STL     PA 
                       00011  PRNTP  SYN     *  
      00011  0560 00 0 00001         LDQ     $WRFLX   
1            FAP                                                                                 PAGE 2     
                  
                       00012  J      SYN     *  
      00012 -0634 00 4 00003         SXD     X4,4     
      00013  0634 00 1 00051         SXA     X1,1     
      00014 -0500 00 4 00001         CAL     1,4           MESSAGE ADDRESS    
      00015  0621 00 0 00031         STA     A  
      00016 -0130 00 0 00000         XCL  
      00017  0621 00 0 00045         STA     H  
      00020  0074 00 4 00002         TSX     $GNAM,4  
      00021  0 00000 0 00003         PZE     X4 
      00022  0774 00 4 77777         AXT     -1,4     
      00023  0402 00 0 00102         SUB     =3            TEST MAD CALL
                  
  BINARY CARD NO. PRNTP002    
      00024 -0100 00 0 00026         TNZ     *+2           SKIP IF FAP OR FORTRAN CALL    
      00025  0774 00 4 00001         AXT     1,4
      00026 -0634 00 4 00036         SXD     F,4
      00027  0774 00 1 00000         AXT     ,1            SCANNING MESSAGE   
      00030  0774 00 4 00016  B      AXT     14,4          LOADING BUFFER     
      00031  0500 00 1 00000  A      CLA     **,1          GET SUCCESSIVE WORDS     
      00032 -0340 00 0 00063         LAS     FENCE    
      00033  0020 00 0 00035         TRA     *+2
      00034  0020 00 0 00053         TRA     C             TRANSFER IF FENCE  
      00035  0601 00 4 00102         STO     L+14,4   
      00036  1 00000 1 00037  F      TXI     *+1,1,**      +1 OR -1     
      00037  2 00001 4 00031         TIX     A,4,1         GO ON IF LINE FULL 
      00040  0774 00 4 00000         AXT     ,4 
      00041 -0634 00 4 00043  D      SXD     G,4
      00042  0774 00 4 00016         AXT     14,4     
      00043 -2 00000 4 00050  G      TNX     E,4,**        COMPUTE LINE LENGTH. SKIP IF ZERO    
      00044 -0634 00 4 00046         SXD     W,4
      00045  0074 00 4 00000  H      TSX     **,4          WRFLX OR WRFLXA    
      00046  0 00000 0 00064  W      PZE     L,,**    
 D    00047  3 00000 1 00030         TXH     B,1           BACK IF WORDS LEFT 
                  
  BINARY CARD NO. PRNTP003    
      00050 -0534 00 4 00003  E      LXD     X4,4     
      00051  0774 00 1 00000  X1     AXT     **,1     
      00052  0020 00 4 00002         TRA     2,4
                  
      00053 -0520 00 0 00062  C      NZT     PA 
      00054 -0120 00 0 00060         TMI     K  
      00055  0600 00 0 00062         STZ     PA 
      00056  0534 00 1 00000         LXA     $WRFLXA,1
      00057  0634 00 1 00045         SXA     H,1
      00060  0774 00 1 00000  K      AXT     0,1           FLAGS END OF MESSAGE     
      00061  0020 00 0 00041         TRA     D  
                  
      00062  0 00000 0 00000  PA     PZE                   ZERO IF PRNTP CALL 
      00063  3 77777 7 77777  FENCE  THREE   -1,7,-1  
      00064                   L      BSS     14 
                                     END  
                  
        LITERALS  
1            FAP                                                                                 PAGE 3     
                  
  BINARY CARD NO. PRNTP004    
      00102  000000000003     
1            FAP                                                                                 PAGE 1     
                        POST PROCESSOR ASSEMBLY DATA  
                  
        103 IS THE FIRST LOCATION NOT USED BY THIS PROGRAM  
                  
0REFERENCES TO DEFINED SYMBOLS      
         31      A    15,   37
         30      B    47
         53      C    34
         41      D    61
         50      E    43
         36      F    26
         43      G    41
         45      H    17,   57
         12      J     7,   12
         60      K    54
         64      L    35,   46
         46      W    44
         62     PA     5,   10,   53,   55
         51     X1    13
          3     X4     5,   12,   21,   50
          2   GNAM    20
         63  FENCE    32
         11  PRNTP     0,   11
          1  WRFLX    11
         10 PRNTPA     0
          5 PRNTPC     0
          0 WRFLXA     6,   56
                  
0 NO ERROR IN ABOVE ASSEMBLY. 




  PRSL   BCD 05/29/67 0007.4    6632         00000    
1            FAP                                                                                 PAGE 1     
                  
                              * .PRSLT, .PRBCD, .PROCT MAD SIMPLIFIED OUTPUT     DAGGETT  FEB. 18,1964
                                             DELETE CARRIAGE CONTROL FOR FOREGROUND. 2/65  EMK  
                                         FIX FOR FUNCTION OUTPUT SPALL  
                                     PCC  
                                     COUNT   400
                                     LBL     PRSL     
1            FAP                                                                                 PAGE 2     
                                            .PRSLT -- SIMPLIFIED OUTPUT ROUTINE     
                  
                                     TTL                      .PRSLT -- SIMPLIFIED OUTPUT ROUTINE     
                              ************************************************************************
                              *                                                                      *
                              *                                                                      *
                              *              PRINT RESULTS SUBROUTINE FOR MAD SIMPLIFIED OUTPUT      *
                              *                                                                      *
                              *          CALLING SEQUENCE--                                          *
                              *                                                                      *
                              *              TSX  .PRSLT,4     TSX  .PRBCD,4     TSX  .PROCT,4       *
                              *              STR  LOCST        STR  LOCST        STR  LOCST     
                              *              STR  A            STR  A            STR  A              *
                              *              STR  B            STR  B            STR  B              *
                              *              TIX  C,,C-20      TIX  C,,C-20      TIX  C,,C-20        *
                              *              ...  ...          ...  ...          ...  ...            *
                              *              ...  ...          ...  ...          ...  ...            *
                              *              ...  ...          ...  ...          ...  ...            *
                              *              STR  0            STR  0            STR  0              *
                              *                                                                      *
                              *          WHERE LOCST IS THE BASE LOCATION OF THE SYMBOL TABLE,       *
                              *          AND A, B, C,...,C(20),.... ARE VARIABLES TO BE PRINTED      *
                              *          THE LIST IS TERMINATED BY A      PAR     0                  *
                              *                                                                      *
                              *                                                                      *
                              ************************************************************************
                  
                  
                  
                       00143         ENTRY   .PRSLT                                                 MI
                       00154         ENTRY   .PRBCD                                                 MI
                       00136         ENTRY   .PROCT                                                 MI
                  
                  
                              ************************************************************************
                              ************************************************************************
                  
                  
                                                           STORAGE
                  
                  
        TRANSFER VECTOR 
      00000  334751314563     .PRINT
      00001  336247514563     .SPRNT
      00002  254524414622     ENDJOB
                  
            LINKAGE DIRECTOR  
      00003  000000000000     
      00004  334751624363     
                  
                       00003  .IR4   SYN     *-2
      00136                    A     BES     1*64+3*8+1                                             MI
                       00022   LINE  EQU     A-76          LINE IMAGE REGION                        MI
                       00015  NUM    EQU     LINE-5             SUBSCRIPT DECODING VECTOR 
                       00014  DIM1   EQU     NUM-1              LAST ADDRESS STORAGE
                       00013  DIM2   EQU     DIM1-1             FIRST ADDRESS STORAGE     
                       00012  INCR   EQU     DIM2-1             + OR - ONE DEPENDING ON DIRECTION     
1            FAP                                                                                 PAGE 3     
                                            .PRSLT -- SIMPLIFIED OUTPUT ROUTINE     
                  
                       00011  VALUE  EQU     INCR-1             STORES ADDRESS DURING SEARCH    
                       00010  DIFF   EQU     VALUE-1            LINEAR SUBSCRIPT STORAGE  
                       00007  DIMFLG EQU     DIFF-1             NON-ZERO IF VARIABLE IS DIMENSIONED   
                       00006  DIMVCT EQU     DIMFLG-1           LOCATION OF DIMENSION VECTOR    
                       00005  ZERSW  EQU     DIMVCT-1 
                  
                              *     
                  
      00136  0500 00 0 00664  .PROCT CLA     =HS1/         INITIALIZE FORMATS FOR OCTAL INTEGERS
      00137  0601 00 0 00356         STO     FORM1-1  
      00140  0560 00 0 00663         LDQ     =H 8(K16 
      00141  0500 00 0 00660         CLA     =HK14,   
      00142  0020 00 0 00160  TRA    TRA     SETMOD   
                  
      00143  0500 00 0 00664  .PRSLT CLA     =HS1/         INITIALIZE FORMATS FOR DECIMAL INTEGERS    
      00144  0601 00 0 00356         STO     FORM1-1  
      00145  0500 00 0 00662         CLA     =H 8(I16 
      00146  0601 00 0 00361         STO     FORM2-1  
      00147  0500 00 0 00655         CLA     =HI14,   
      00150  0601 00 0 00367         STO     FORM3-1  
      00151  0560 00 0 00467         LDQ     LGL3          MODE VARIABLE IF PRINT RESULTS 
      00152  0500 00 0 00244         CLA     TZE
      00153  0020 00 0 00164         TRA     MAIN     
                  
      00154  0500 00 0 00665  .PRBCD CLA     =HS1/(S6      INITIALIZE FORMATS FOR BCD INTEGERS  
      00155  0601 00 0 00356         STO     FORM1-1  
      00156  0560 00 0 00667         LDQ     =H, 20C6 
      00157  0500 00 0 00666         CLA     =HS8,C6, 
      00160  0601 00 0 00367  SETMOD STO     FORM3-1  
      00161 -0600 00 0 00361         STQ     FORM2-1  
      00162  0500 00 0 00142         CLA     TRA
      00163  0560 00 0 00521         LDQ     MODE1    
      00164  0622 00 0 00516  MAIN   STD     MDSWCH   
      00165 -0600 00 0 00475         STQ     MODIFY   
1            FAP                                                                                 PAGE 4     
                                            .PRSLT -- SIMPLIFIED OUTPUT ROUTINE     
                  
                                     EJECT
                                                                MAIN SCAN     
                  
                  
      00166  0634 00 1 00643         SXA     IR1,1    
      00167  0634 00 2 00644         SXA     IR2,2    
      00170 -0634 00 4 00003         SXD     .IR4,4   
      00171 -0500 00 4 00001         CAL     1,4                PICK UP LOCATION OF SYMBOL TABLE
      00172  0400 00 0 00647         ADD     =1                 ADD ONE FOR SECOND ENTRY  
      00173  0621 00 0 00425         STA     SEARCH             AND STORE FOR SEARCHING   
      00174 -0500 60 4 00001         CAL*    1,4                PICK UP LENGTH OF SYMBOL TABLE  
      00175  0621 00 0 00424         STA     LNSYTL             AND STORE     
      00176  0634 00 0 00234         ZSA     FMTCNT             INITIALIZE FORMAT INDEX   
      00177  0774 00 1 00021         AXT     LINE-1,1           INITIALIZE LINE BASE
      00200  0634 00 1 00504  SCAN   SXA     STORE,1            STORE LINE BASE     
      00201  0634 00 1 00223         SXA     STORE1,1 
      00202  0634 00 4 00262  SCAN1  SXA     PARIND,4           SAVE PARAMETER INDEX
      00203  0774 00 1 77777         AXT     -1,1               SET LINE INDEX
      00204 -0754 00 0 00000         ZAC  
      00205  0560 00 4 00002         LDQ     2,4                PICK UP PARAMETER   
      00206  0763 00 0 00002         LLS     2  
      00207  0040 00 0 00642         TLQ     EXIT     
      00210  0760 00 0 00001         LBT                        EXAMINE FOR PAR OR BLK    
      00211  0020 00 0 00264         TRA     BLK
1            FAP                                                                                 PAGE 5     
                                            .PRSLT -- SIMPLIFIED OUTPUT ROUTINE     
                  
                                     EJECT
                                                             PARAMETER SCAN   
                  
                  
      00212  0600 00 0 00005         STZ     ZERSW              SET PAR FLAG  
      00213 -0500 00 0 00670         CAL     =H,                INSERT COMMA AFTER LAST GROUP   
      00214  0522 00 0 00504         XEC     STORE    
      00215  1 77777 1 00216         TXI     *+1,1,-1 
      00216  0763 00 0 00041         LLS     33 
      00217 -0320 00 0 00652         ANA     =O77777            GET LOCATION OF VARIABLE  
      00220  0074 00 4 00416         TSX     SETUP,4            SET UP VARIABLE IN BCD    
      00221  0560 00 0 00372         LDQ     BLANKS             RIGHT ADJUST  
      00222  0774 00 2 77756         AXT     -18,2    
      00223 -0600 00 2 00000  STORE1 STQ     **,2               WITH TRAILING BLANKS
      00224  1 00001 2 00225  RADJ   TXI     *+1,2,1  
      00225  3 77776 2 00232         TXH     MODE,2,-2          TAKEN WHEN DONE     
      00226  3 77776 1 00223         TXH     STORE1,1,-2    
      00227 -0500 60 0 00504         CAL*    STORE              RIGHT ADJUST  
      00230  0602 60 0 00223         SLW*    STORE1   
      00231  1 00001 1 00224         TXI     RADJ,1,1 
      00232  0774 00 4 00000  MODE   AXT     **,4               GET MODE
      00233  3 00002 4 00451         TXH     ERR,4,2            CANNOT BE GREATER THAN 2  
      00234  0774 00 2 00000  FMTCNT AXT     **,2               GET FORMAT INDEX    
      00235  0560 00 4 00373         LDQ     FORM4,4            SET UP FORMAT ACCORDING TO MODE 
      00236 -0600 00 2 00400         STQ     FORMAT+3,2     
      00237  0560 00 4 00370         LDQ     FORM3,4  
      00240  0500 60 0 00011         CLA*    VALUE    
      00241  0774 00 1 77755         AXT     -19,1    
      00242  0601 60 0 00504         STO*    STORE              INSERT VALUE IN LIST
      00243  3 00000 4 00253         TXH     NOTF,4,0           CANNOT BE F TYPE    
      00244  0100 00 0 00252  TZE    TZE     NOTF-1             MAKE F TYPE IF ZERO 
      00245 -0340 00 0 00654         LAS     =10000.0           IF LESS THAN 10,000 
      00246  0020 00 0 00253         TRA     NOTF     
      00247  0020 00 0 00253         TRA     NOTF     
      00250 -0340 00 0 00653         LAS     =0.010             AND GREATER THAN 0.01     
      00251  0020 00 0 00252         TRA     *+1
      00252  0560 00 0 00374         LDQ     FORMF              MAKE F TYPE   
      00253 -0600 00 2 00377  NOTF   STQ     FORMAT+2,2     
      00254  1 77774 2 00255         TXI     *+1,2,-4           DECREMENT FORMAT INDEX    
      00255  0634 00 2 00234         SXA     FMTCNT,2           AND STORE     
      00256  0534 00 1 00504         LXA     STORE,1            GET LINE BASE 
      00257  1 00023 1 00260         TXI     *+1,1,19           INCREMENT LINE BASE 
      00260 -3 00134 1 00262         TXL     *+2,1,LINE+74      IS LINE FULL  
      00261  0074 00 4 00626         TSX     LNOUT1,4           YES SEND OUT LINE   
      00262  0774 00 4 00000  PARIND AXT     **,4               RESTORE PARAMETER INDEX   
      00263  1 77777 4 00200         TXI     SCAN,4,-1          GET NEXT PARAMETER  
1            FAP                                                                                 PAGE 6     
                                            .PRSLT -- SIMPLIFIED OUTPUT ROUTINE     
                  
                                     EJECT
                                                                BLOCK SCAN    
                  
                  
      00264  0774 00 4 00002  BLK    AXT     2,4
      00265 -0754 00 0 00000         ZAC  
      00266  0763 00 0 00017         LLS     15 
      00267  0602 00 4 00015         SLW     DIM2+2,4           HERE INTO DIM1, THERE INTO DIM2 
      00270 -0773 00 0 00003         RQL     3  
      00271  2 00001 4 00265         TIX     *-4,4,1  
      00272  0074 00 4 00624         TSX     LNOUT,4            SEND OUT PREVIOUS PARTIAL LINE  
      00273  0502 00 0 00014         CLS     DIM1               PICK UP HERE  
      00274  0621 00 0 00340         STA     BLKIOP             SET UP IOP    
      00275  0400 00 0 00013         ADD     DIM2               GENERATE DIFFERENCE,  THERE-HERE
      00276  0621 00 0 00333         STA     BLK2               SAVE DIFFERENCE     
      00277  0760 00 0 00000         CLM  
      00300 -0501 00 0 00647         ORA     =1                 GENERATE PLUS OR MINUS ONE
      00301  0601 00 0 00012         STO     INCR     
      00302 -0625 00 0 00005         STL     ZERSW              SET BLOCK FLAG
      00303  0774 00 1 77777         AXT     -1,1               SET LINE INDEX
      00304 -0500 00 0 00014         CAL     DIM1               PICK UP HERE  
      00305  0074 00 4 00416         TSX     SETUP,4            SET UP HERE IN BCD  
      00306 -0500 00 0 00656         CAL     =H.
      00307  0602 00 1 00022         SLW     LINE,1             ADD ELLIPSIS (...)  
      00310  0602 00 1 00023         SLW     LINE+1,1 
      00311  0602 00 1 00024         SLW     LINE+2,1 
      00312  1 77774 1 00313         TXI     *+1,1,-4           INCREMENT FOR ELLIPSIS    
      00313 -0500 00 0 00013         CAL     DIM2               PICK UP THERE 
      00314  0074 00 4 00416         TSX     SETUP,4            SET UP THERE IN BCD 
      00315 -0500 00 0 00372         CAL     BLANKS             FILL OUT LINE WITH BLANKS 
      00316  0602 00 1 00022         SLW     LINE,1   
      00317  1 77777 1 00320         TXI     *+1,1,-1 
      00320  3 77737 1 00316         TXH     *-2,1,-33
      00321  0074 00 4 00000         TSX     $.PRINT,4                                              MI
      00322 -1 00000 0 00353         STR     BLKHED                                                 MI
      00323 -1 00062 0 00022         STR     LINE,,LINE+32                                          MI
      00324 -1 00000 0 00000         STR                                                            MI
      00325  0534 00 4 00232  BLK1   LXA     MODE,4             PICK UP MODE  
      00326  3 00002 4 00451         TXH     ERR,4,2            CANNOT BE GREATER THAN 2  
      00327 -0500 00 4 00357         CAL     FORM1,4            SET UP FORMAT ACCORDING TO MODE 
      00330  0602 00 0 00363         SLW     BLKFRM   
      00331 -0500 00 4 00362         CAL     FORM2,4  
      00332  0602 00 0 00364         SLW     BLKFRM+1 
      00333  0774 00 1 00000  BLK2   AXT     **,1               XA = .ABS.(HERE - THERE)  
      00334  1 00001 1 00335         TXI     *+1,1,1            ADD ONE TO DIFFERENCE     
      00335  0074 00 4 00000   BLKPR TSX     $.PRINT,4     SEND OUT BLOCK                           MI
      00336 -1 00000 0 00363         STR     BLKFRM                                                 MI
      00337  0774 00 2 00000  BLKSET AXT     **,2               XB = NUMBER OF COLUMNS    
      00340 -1 00000 0 00000  BLKIOP STR     ** 
      00341 -2 00001 1 00350         TNX     ENDIO,1,1          TAKEN WHEN DONE     
      00342  0500 00 0 00012         CLA     INCR               SET IOP FOR NEXT VARIABLE 
      00343  0401 00 0 00340         ADM     BLKIOP   
      00344  0621 00 0 00340         STA     BLKIOP   
      00345  2 00001 2 00340         TIX     BLKIOP,2,1     
      00346 -1 00000 0 00000         STR                                                            MI
1            FAP                                                                                 PAGE 7     
                                            .PRSLT -- SIMPLIFIED OUTPUT ROUTINE     
                  
      00347  0020 00 0 00335         TRA     BLKPR         GO BACK FOR ANOTHER ROW                  MI
      00350 -1 00000 0 00000  ENDIO  STR  
                              *                                                                     MI
      00351  0534 00 4 00262         LXA     PARIND,4           RESTORE PARAMETER INDEX   
      00352  1 77777 4 00202         TXI     SCAN1,4,-1         GO BACK FOR ANOTHER PARAMETER   
1            FAP                                                                                 PAGE 8     
                                            .PRSLT -- SIMPLIFIED OUTPUT ROUTINE     
                  
                                     EJECT
                                                                FORMATS 
                  
                  
      00353  616161620111     BLKHED BCI     2,///S19,33C1* 
      00354  730303230154     
      00355  620161107431            BCI     1,S1/8(I                                               MI
      00356  620161606060            BCI     1,S1/         OR S1/(S6                                MI
      00357  620161107401     FORM1  BCI     1,S1/8(1 
      00360  310573013022            BCI     1,I5,1HB                                               MI
      00361  601074310106            BCI     1, 8(I16      OR, 20C6 OR 8(K16                        MI
      00362  472501063306     FORM2  BCI     1,PE16.6 
      00363  606060606060     BLKFRM BCI     3,            )*     
      00364  606060606060     
      00365  345460606060     
      00366  310103730130            BCI     1,I13,1H                                               MI
      00367  310104736060            BCI     1,I14,        OR S8,C6,ORK14                           MI
      00370  014725010433     FORM3  BCI     1,1PE14. 
      00371  226060606060            BCI     1,B                                                    MI
      00372  606060606060     BLANKS BCI     1, 
      00373  067360606060     FORM4  BCI     1,6,     
      00374  606026010433     FORMF  BCI     1,  F14. 
      00375  617361010723     FORMAT BCI     4,/,/17C1,1H=  
      00376  017301301360     
      00377  606060606060     
      00400  606060606060     
      00401  011023017301            BCI     4,18C1,1H=     
      00402  301360606060     
      00403  606060606060     
      00404  606060606060     
      00405  011023017301            BCI     4,18C1,1H=     
      00406  301360606060     
      00407  606060606060     
      00410  606060606060     
      00411  011023017301            BCI     4,18C1,1H=     
      00412  301360606060     
      00413  606060606060     
      00414  606060606060     
      00415  546060606060            BCI     1,*
1            FAP                                                                                 PAGE 9     
                                            .PRSLT -- SIMPLIFIED OUTPUT ROUTINE     
                  
                                     EJECT
                                                   SCAN TO SET UP NAME OF VARIABLE WITH SUBSCRIPTS    
                  
                  
      00416  0634 00 4 00555  SETUP  SXA     SETIR4,4 
      00417  0634 00 0 00447         ZSA     INDEX    
      00420  0602 00 0 00011         SLW     VALUE              STORE ADDRESS OF VARIABLE 
      00421  0500 00 0 00652         CLA     =O77777            INITIALIZE DIFFERENCE LARGE     
      00422  0601 00 0 00010         STO     DIFF     
      00423  0621 00 0 00337         STA     BLKSET             INITIALIZE COLUMN COUNT   
      00424  0774 00 2 00000  LNSYTL AXT     **,2               XB = LENGTH OF SYMBOL TABLE     
      00425 -0500 00 2 00000  SEARCH CAL     **,2     
      00426 -0320 00 0 00652         ANA     =O77777            ISOLATE ADDRESS     
      00427  0340 00 0 00557         CAS     COMCHK                                    JSMI     
      00430  0020 00 0 00435         TRA     SKIP                                               JSMI  
      00431  0761 00 0 00000         NOP                                                         JSMI 
      00432  0402 00 0 00011         SUB     VALUE              GET DIFFERENCE IN ADDRESSES     
      00433 -0120 00 0 00446         TMI     NOTVAR        NOT THE VARIABLE IF MINUS
      00434  0400 00 0 00011         ADD     VALUE         PUT IT BACK IN                      JSMI   
      00435  0402 00 0 00011  SKIP   SUB     VALUE         SUBTRACT FOR ALL                 JSMI
      00436  0100 00 0 00464         TZE     EXACT              VARIABLE FOUND IF ZERO    
      00437  0560 60 0 00425         LDQ*    SEARCH             GET SECOND ENTRY    
      00440  0162 00 0 00446         TQP     NOTVAR             NOT SUBSCRIPTED IF PLUS   
      00441  0340 00 0 00010         CAS     DIFF               IF DIFF LESS  
      00442  0020 00 0 00446         TRA     NOTVAR             NO
      00443  0020 00 0 00446         TRA     NOTVAR             NO
      00444  0601 00 0 00010         STO     DIFF               YES, SAVE NEW DIFFERENCE  
      00445  0634 00 2 00447         SXA     INDEX,2            AND INDEX     
      00446  2 00002 2 00425  NOTVAR TIX     SEARCH,2,2     
      00447  0774 00 2 00000  INDEX  AXT     **,2               VARIABLE NOT FOUND, USE LEAST SUB.    
      00450  3 00000 2 00465         TXH     DIM,2,0            SUBSCRIPTABLE VARIABLE FOUND IF TAKEN 
      00451  0074 00 4 00001   ERR   TSX     $.SPRNT,4     SEND OUT                                 MI
      00452  0 00005 0 00457                 IFIOL,,5      COMMENT                                  MI
      00453  0534 00 1 00643         LXA     IR1,1              RESTORE INDEX REGISTERS   
      00454  0534 00 2 00644         LXA     IR2,2    
      00455 -0534 00 4 00003         LXD     .IR4,4   
      00456  0074 00 4 00002         TSX     $ENDJOB,4                                              MI
      00457  545454546031     IFIOL  BCI     5,**** ILLEGALLY FORMED I/O LIST 
      00460  434325272143     
      00461  437060264651     
      00462  442524603161     
      00463  466043316263     
      00464  0600 00 0 00010  EXACT  STZ     DIFF     
      00465 -0754 00 0 00000  DIM    ZAC  
      00466  0560 60 0 00425         LDQ*    SEARCH             PICK UP SECOND ENTRY
      00467 -0763 00 0 00003  LGL3   LGL     3  
      00470  0602 00 0 00007         SLW     DIMFLG             NON-ZERO IF DIMENSIONED   
      00471 -0754 00 0 00000         ZAC  
      00472 -0763 00 0 00017         LGL     15 
      00473  0602 00 0 00006         SLW     DIMVCT             LOCATION OF DIMENSION VECTOR    
      00474 -0754 00 0 00000         ZAC  
      00475  0 00000 0 00000  MODIFY ***                   LGL 3 FOR PRSLT OR CAL  =1     
      00476  0621 00 0 00232         STA     MODE               MODE    
      00477  1 00001 2 00500         TXI     *+1,2,1  
      00500  0560 60 0 00425         LDQ*    SEARCH             PICK UP FIRST ENTRY (NAME)
1            FAP                                                                                 PAGE 10    
                                            .PRSLT -- SIMPLIFIED OUTPUT ROUTINE     
                  
      00501  0774 00 2 00006         AXT     6,2
      00502 -0763 00 0 00006  NAME   LGL     6                  GET CHARACTER 
      00503  0767 00 0 00036         ALS     30                 LEFT ADJUST   
      00504  0602 00 1 00000  STORE  SLW     **,1               AND STORE IN LINE IMAGE   
      00505  0322 00 0 00661         ERA     =H 00000           CHECK CHARACTER FOR A BLANK     
      00506  0100 00 0 00511         TZE     ENDSYM   
      00507  1 77777 1 00510         TXI     *+1,1,-1 
      00510  2 00001 2 00502         TIX     NAME,2,1 
      00511 -3 00005 2 00544  ENDSYM TXL     LEGAL,2,5          CHECK FOR FIRST CHARACTER BLANK 
      00512  0500 60 0 00011  MDTST  CLA*    VALUE              PICK UP VARIABLE    
      00513  0520 00 0 00005         ZET     ZERSW              IS THIS AN EXTERNAL BLOCK 
      00514  0100 00 0 00540         TZE     MDCHK              YES     
      00515  0771 00 0 00033         ARS     27 
      00516  0100 00 0 00521  MDSWCH TZE     *+3                INTEGER MODE IF ZERO OR BCD OR OCTAL  
      00517 -0754 00 0 00000         ZAC  
      00520  0020 00 0 00522         TRA     *+2
      00521 -0500 00 0 00647  MODE1  CAL     =1 
      00522  0621 00 0 00232         STA     MODE               RESET MODE    
      00523  0600 00 0 00007         STZ     DIMFLG             RESET DIMENSION FLAG
      00524 -0520 00 0 00005         NZT     ZERSW              IS THIS AN EXTERNAL BLOCK 
      00525  1 77777 2 00502         TXI     NAME,2,-1          GET REST OF NAME    
      00526  0074 00 4 00001         TSX     $.SPRNT,4     PRINT EXTERNAL                           MI
      00527  0 00007 0 00531                 DVB,,7        BLOCK HEADING                            MI
      00530  0020 00 0 00325         TRA     BLK1               PRINT OUT BLOCK     
      00531  606060606060     DVB    BCI     7,                    DUMMY VARIABLE BLOCK   
      00532  606060606060     
      00533  606060606060     
      00534  606024644444     
      00535  706065215131     
      00536  212243256022     
      00537  434623426060     
      00540 -0500 00 0 00011  MDCHK  CAL     VALUE              CHECK REST    
      00541  0400 00 0 00012         ADD     INCR          OF ARRAY                                 MI
      00542  0602 00 0 00011         SLW     VALUE                                                  MI
      00543  0020 00 0 00512         TRA     MDTST              ELEMENT 
      00544 -0520 00 0 00007  LEGAL  NZT     DIMFLG             WAS VARIABLE DIMENSIONED  
      00545  1 00001 1 00555         TXI     SETIR4,1,1         NO
      00546  0520 00 0 00006         ZET     DIMVCT             YES, WAS THERE A DIMENSION VECTOR     
      00547  0020 00 0 00560         TRA     DBLSUB             YES     
      00550 -0500 00 0 00671  SGLSUB CAL     =H(                SET UP LINEAR SUBSCRIPT   
      00551  0560 00 0 00010  SNDSUB LDQ     DIFF     
      00552  0074 00 4 00603         TSX     CONVRT,4 
      00553 -0500 00 0 00657         CAL     =H)
      00554  0522 00 0 00504         XEC     STORE    
      00555  0774 00 4 00000  SETIR4 AXT     **,4     
      00556  0020 00 4 00001         TRA     1,4                RETURN  
                       77461  COMMON COMMON  -1                                                   JSMI
      00557  0 00000 0 77461  COMCHK PZE     COMMON                                               JSMI
      00560  0535 00 4 00006  DBLSUB LAC     DIMVCT,4 
      00561 -0500 00 4 00000         CAL     0,4                CHECK NUMBER OF DIMENSIONS
      00562  0402 00 0 00650         SUB     =2 
      00563 -0100 00 0 00550         TNZ     SGLSUB             TAKEN IF NOT TWO DIMENSIONAL    
      00564  0500 00 4 77776         CLA     -2,4               SET COLUMN NUMBER   
      00565  0621 00 0 00337         STA     BLKSET   
      00566  0500 00 0 00010         CLA     DIFF               COMPUTE SUBSCRIPTS  
1            FAP                                                                                 PAGE 11    
                                            .PRSLT -- SIMPLIFIED OUTPUT ROUTINE     
                  
      00567  0402 00 4 77777         SUB     -1,4               SUBTRACT BASE 
      00570  0765 00 0 00043         LRS     35 
      00571  0221 00 4 77776         DVP     -2,4               GET ROW AND COLUMN  
      00572  0400 00 0 00647         ADD     =1 
      00573  0131 00 0 00000         XCA  
      00574  0400 00 0 00647         ADD     =1 
      00575  0131 00 0 00000         XCA  
      00576  0601 00 0 00010         STO     DIFF               STORE SECOND SUBSCRIPT    
      00577 -0500 00 0 00671         CAL     =H(                SET UP FIRST SUBSCRIPT    
      00600  0074 00 4 00603         TSX     CONVRT,4 
      00601 -0500 00 0 00670         CAL     =H,
      00602  0020 00 0 00551         TRA     SNDSUB             SET UP SECOND SUBSCRIPT   
1            FAP                                                                                 PAGE 12    
                                            .PRSLT -- SIMPLIFIED OUTPUT ROUTINE     
                  
                                     EJECT
                                                    ROUTINE TO SET UP SUBSCRIPT VALUE IN LINE   
                  
                  
      00603  0522 00 0 00504  CONVRT XEC     STORE              STORE ( OR ,  
      00604  1 77777 1 00605         TXI     *+1,1,-1 
      00605  0634 00 4 00622         SXA     CONV3,4  
      00606  0774 00 4 00001         AXT     1,4
      00607 -0754 00 0 00000  CONV1  ZAC                        CONVERT MQ TO BCD   
      00610  0221 00 0 00651         DVP     =10
      00611  0767 00 0 00036         ALS     30 
      00612  0602 00 4 00022         SLW     NUM+5,4  
      00613 -0600 00 0 00005         STQ     ZERSW    
      00614  0520 00 0 00005         ZET     ZERSW              DONE WHEN MQ IS ZERO
      00615  1 00001 4 00607         TXI     CONV1,4,1
      00616 -0500 00 4 00022  CONV2  CAL     NUM+5,4            INVERT LIST   
      00617  0522 00 0 00504         XEC     STORE              INTO LINE IMAGE     
      00620  1 77777 1 00621         TXI     *+1,1,-1 
      00621  2 00001 4 00616         TIX     CONV2,4,1
      00622  0774 00 4 00000  CONV3  AXT     **,4     
      00623  0020 00 4 00001         TRA     1,4
1            FAP                                                                                 PAGE 13    
                                            .PRSLT -- SIMPLIFIED OUTPUT ROUTINE     
                  
                                     EJECT
                                             SUBROUTINE TO SEND OUT LINE OR PORTION THEREOF     
                  
                  
      00624  0534 00 1 00504  LNOUT  LXA     STORE,1  
      00625 -3 00022 1 00641         TXL     LNXT,1,LINE        EMPTY LINE IF TAKEN 
      00626  0634 00 4 00640  LNOUT1 SXA     LNXC,4   
      00627 -0634 00 1 00632         SXD     LNIOP,1            SET END OF LINE     
      00630  0074 00 4 00000         TSX     $.PRINT,4                                              MI
      00631 -1 00000 0 00375         STR     FORMAT                                                 MI
      00632 -1 00000 0 00023  LNIOP  STR     LINE+1,,**     
      00633 -1 00000 0 00000         STR  
      00634  0774 00 1 00021         AXT     LINE-1,1           RESET LINE BASE     
      00635  0634 00 1 00504         SXA     STORE,1            AND STORE     
      00636  0634 00 1 00223         SXA     STORE1,1 
      00637  0634 00 0 00234         ZSA     FMTCNT   
                              *                                                                     MI
      00640  0774 00 4 00000  LNXC   AXT     **,4     
      00641  0020 00 4 00001  LNXT   TRA     1,4                RETURN  
1            FAP                                                                                 PAGE 14    
                                            .PRSLT -- SIMPLIFIED OUTPUT ROUTINE     
                  
                                     EJECT
                                                                PROGRAM EXIT  
                  
                  
      00642  0074 00 4 00624  EXIT   TSX     LNOUT,4            EXIT TO CALLING PROGRAM   
      00643  0774 00 1 00000  IR1    AXT     **,1     
      00644  0774 00 2 00000  IR2    AXT     **,2     
                              *                                                                     MI
      00645 -0534 00 4 00003         LXD     .IR4,4                               JSMI    
      00646  0020 00 4 00003         TRA     3,4
                                     END  
                  
        LITERALS  
      00647  000000000001     
      00650  000000000002     
      00651  000000000012     
      00652  000000077777     
      00653  172507534121     
      00654  216470400000     
      00655  310104736060     
      00656  336060606060     
      00657  346060606060     
      00660  420104736060     
      00661  600000000000     
      00662  601074310106     
      00663  601074420106     
      00664  620161606060     
      00665  620161746206     
      00666  621073230673     
      00667  736002002306     
      00670  736060606060     
      00671  746060606060     
1            FAP                                                                                 PAGE 1     
                        POST PROCESSOR ASSEMBLY DATA  
                  
       77462 IS THE LAST LOCATION NOT USED BY THIS PROGRAM  
        672 IS THE FIRST LOCATION NOT USED BY THIS PROGRAM  
                  
0REFERENCES TO DEFINED SYMBOLS      
        136      A   136
        264    BLK   211
        465    DIM   450
        531    DVB   527
        451    ERR   233,  326
        643    IR1   166,  453
        644    IR2   167,  454
         15    NUM   136,  612,  616
        142    TRA   162
        244    TZE   152
        325   BLK1   530
        333   BLK2   276
         10   DIFF   136,  422,  441,  444,  464,  551,  566,  576
         14   DIM1   136,  273,  304
         13   DIM2   136,  267,  275,  313
        642   EXIT   207
         12   INCR   136,  301,  342,  541
          3   .IR4     5,  170,  455,  645
        467   LGL3   151
         22   LINE   136,  177,  260,  307,  310,  311,  316,  323,  625,  632,  634
        640   LNXC   626
        641   LNXT   625
        164   MAIN   153
        232   MODE   225,  325,  476,  522
        502   NAME   510,  525
        253   NOTF   243,  244,  246,  247
        224   RADJ   231
        200   SCAN   263
        435   SKIP   430
        335  BLKPR   347
        607  CONV1   615
        616  CONV2   621
        622  CONV3   605
        350  ENDIO   341
        464  EXACT   436
        357  FORM1   137,  144,  155,  327
        362  FORM2   146,  161,  331
        370  FORM3   150,  160,  237
        373  FORM4   235
        374  FORMF   252
        457  IFIOL   452
        447  INDEX   417,  445
        544  LEGAL   511
        632  LNIOP   627
        624  LNOUT   272,  642
        540  MDCHK   514
        512  MDTST   543
        521  MODE1   163
        202  SCAN1   352
        416  SETUP   220,  305,  314
1            FAP                                                                                 PAGE 2     
                        POST PROCESSOR ASSEMBLY DATA  
                  
        504  STORE   200,  214,  227,  242,  256,  554,  603,  617,  624,  635
         11  VALUE   136,  240,  420,  432,  434,  435,  512,  540,  542
          5  ZERSW   136,  212,  302,  513,  524,  613,  614
        372 BLANKS   221,  315
        363 BLKFRM   330,  332,  336
        353 BLKHED   322
        340 BLKIOP   274,  343,  344,  345
        337 BLKSET   423,  565
        557 COMCHK   427
      77461 COMMON   557
        603 CONVRT   552,  600
        560 DBLSUB   547
          7 DIMFLG   136,  470,  523,  544
          6 DIMVCT   136,  473,  546,  560
          2 ENDJOB   456
        511 ENDSYM   506
        234 FMTCNT   176,  255,  637
        375 FORMAT   236,  253,  631
        154 .PRBCD     0
          0 .PRINT   321,  335,  630
        136 .PROCT     0
        143 .PRSLT     0
          1 .SPRNT   451,  526
        626 LNOUT1   261
        424 LNSYTL   175
        516 MDSWCH   164
        475 MODIFY   165
        446 NOTVAR   433,  440,  442,  443
        262 PARIND   202,  351
        425 SEARCH   173,  437,  446,  466,  500
        555 SETIR4   416,  545
        160 SETMOD   142
        550 SGLSUB   563
        551 SNDSUB   602
        223 STORE1   201,  226,  230,  636
                  
0 NO ERROR IN ABOVE ASSEMBLY. 




  RANN   BCD 05/29/67 0007.4     843         00000    
1            FAP                                                                                 PAGE 1     
                  
                              *      AUGUST 22,1962   
                                         MERWIN  ET AL
                                             REVISED TO ACCEPT MAD CALLING SEQUENCES
                                             MAY, 1961
                  
                                         GENERATION))   U(0) =ANY ODD NUMBER  
                                         U(N)=U(N-1)*(2**18+3)  (MOD 2**35)   
                                             THE CALLING SEQUENCE FOR SETU IS 
                  
                                                   CALL  SETU            TSX  $SETU,4     
                                                   ARG=N IN AC           TXH  N     
                                                FOR FORTRAN           FOR MAD 
                  
                                             FOR RANNO IT IS SIMPLY     
                  
                                                   CALL  RANNO,  WITH N IN THE AC   
                  
                  
                  
  BINARY CARD NO. RANN0000    
                       00002         ENTRY   RANNO    
                       00027         ENTRY   SETU     
                  
            LINKAGE DIRECTOR  
                  
  BINARY CARD NO. RANN0001    
      00000  000000000000     
      00001  512145454660     
                  
      00002 -0140 00 0 00006  RANNO  TNO  *+4              SAVE THE STATUS OF THE   
      00003  0500 00 0 00040         CLA  FIX               .  OVERFLOW INDICATOR   
      00004  0601 00 0 77776         STO  COMMON            .     
      00005  0020 00 0 00007         TRA  *+2               .     
      00006  0600 00 0 77776         STZ  COMMON            .     
      00007  0500 00 0 00037         CLA U
      00010  0767 00 0 00022         ALS 18     
      00011  0400 00 0 00037         ADD U
      00012  0400 00 0 00037         ADD U
      00013  0400 00 0 00037         ADD U
      00014  0601 00 0 00037         STO U
      00015  0500 00 0 00037         CLA U
      00016  0765 00 0 00010         LRS 8
      00017 -0501 00 0 00040         ORA FIX    
      00020  0300 00 0 00040         FAD FIX    
      00021  0601 00 0 77777         STO COMMON+1     
      00022  0140 00 0 00023         TOV  *+1              RESTORE OVERFLOW STATUS  
      00023  0500 00 0 77776         CLA  COMMON            .     
                  
  BINARY CARD NO. RANN0002    
      00024  0767 00 0 00003         ALS  3                 .     
      00025  0500 00 0 77777         CLA COMMON+1     
      00026  0020 00 4 00001         TRA 1,4    
1            FAP                                                                                 PAGE 2     
                  
      00027  0771 00 0 00022  SETU   ARS     18 
      00030  0601 00 0 00037         STO     U  
      00031  0500 00 0 00041         CLA     TXH           MODE TEST--MAD OR FORTRAN
      00032  0560 00 4 00001         LDQ     1,4            .     
      00033  0040 00 4 00001         TLQ     1,4            .  FORTRAN--RETURN
      00034  0500 60 4 00001         CLA*    1,4            .  GET MAD ARGUMENT     
      00035  0601 00 0 00037         STO     U              .     
      00036  0020 00 4 00002         TRA     2,4            .  RETURN   
                  
                  
                  
                  
                  
                                             CONSTANTS
                  
                  
      00037 +000000000001      U     OCT 1
      00040 +200000000000      FIX   DEC 128B8  
 ATD  00041  3 00000 0 00000  TXH    TXH                   FOR MAD-FORTRAN TEST     
                  
                       77776         COMMON  -205     
                       77776  COMMON COMMON  1  
                                     END  
1            FAP                                                                                 PAGE 1     
                        POST PROCESSOR ASSEMBLY DATA  
                  
       77775 IS THE LAST LOCATION NOT USED BY THIS PROGRAM  
         42 IS THE FIRST LOCATION NOT USED BY THIS PROGRAM  
                  
0REFERENCES TO DEFINED SYMBOLS      
         37      U     7,   11,   12,   13,   14,   15,   30,   35
         40    FIX     3,   17,   20
         41    TXH    31
         27   SETU     0
          2  RANNO     0
      77776 COMMON     4,    6,   21,   23,   25,   42
                  
0 NO ERROR IN ABOVE ASSEMBLY. 




  RBIN   BCD 05/29/67 0007.4    1339         00000    
1      ASSEMBLED BY J. SPALL FOR FOREGROUND, APRIL 1965                                          PAGE 1     
                  
                       00006         ENTRY   .RBIN    
                       00010         ENTRY   .WBIN    
                  
                  
        TRANSFER VECTOR 
      00000  746263223460     (STB) 
      00001  746362223460     (TSB) 
      00002  746643513460     (WLR) 
      00003  745143513460     (RLR) 
                  
            LINKAGE DIRECTOR  
      00004  000000000000     
      00005  335122314560     
                  
      00006  0600 00 0 00117  .RBIN  STZ     INOUT         SET I/O SWITCH FOR INPUT.
      00007  0020 00 0 00011         TRA     .WBIN+1  
                  
      00010 -0625 00 0 00117  .WBIN  STL     INOUT         SET I/O SWITCH FOR OUTPUT
      00011 -0500 00 0 00000         CAL     0             SAVE CONTENTS OF LOCATIONS OF 0 AND 2
      00012  0602 00 0 00114         SLW     C(0)          ..     
      00013 -0500 00 0 00002         CAL     2             ..     
      00014  0602 00 0 00115         SLW     C(2)          ..     
      00015 -0500 00 0 00020         CAL     TPNRTN        SET RETURN WITH TAPE NO. 
      00016  0602 00 0 00002         SLW     2             ..     
      00017  0020 00 4 00001         TRA     1,4           RETURN TO MAD PROGRAM FOR TAPE NO.   
                  
      00020  0020 00 0 00021  TPNRTN TRA     *+1           RETURN FROM MAD PROGRAM WITH TAPE NO.
      00021 -0500 00 0 00000         CAL     0             GET ADDRESS OF STR 
      00022  0621 00 0 00037         STA     LSTRTN        ..     
      00023  0402 00 0 00120         SUB     =1            ..     
      00024  0621 00 0 00025         STA     *+1           ..     
      00025 -0500 60 0 00000         CAL*    **            PICK UP TAPE NO.   
      00026  0767 00 0 00022         ALS     18            INTO DECREMENT FOR FORTRAN I/O ROUTINES    
      00027  0520 00 0 00117         ZET     INOUT         TEST I/O SWITCH    
      00030  0074 00 4 00000         TSX     $(STB),4      FORTRAN BINARY OUTPUT ROUTINE  
      00031 -0520 00 0 00117         NZT     INOUT    
      00032  0074 00 4 00001         TSX     $(TSB),4      FORTRAN BINARY INPUT ROUTINE   
      00033 -0500 00 0 00002         CAL     2             SAVE RETURN FOR (IOB)    
      00034  0602 00 0 00116         SLW     IOBC2         ..     
      00035 -0500 00 0 00040         CAL     RETURN        SET TRAP RETURN FROM MAD PROGRAM     
      00036  0602 00 0 00002         SLW     2             ..     
      00037  0020 00 0 00000  LSTRTN TRA     **            RETURN TO MAD PROGRAM FOR LIST 
                  
      00040  0020 00 0 00041  RETURN TRA     *+1           RETURN FROM MAD PROGRAM WITH LIST    
      00041 -0500 00 0 00116         CAL     IOBC2         RESTORE (IOB) RETURN     
      00042  0602 00 0 00002         SLW     2             ..     
      00043 -0500 00 0 00000         CAL     0             SAVE TRAP LOCATION +1    
      00044  0621 00 0 00102         STA     GOBACK   
      00045  0402 00 0 00120         SUB     =1 
      00046  0621 00 0 00047         STA     *+1
      00047 -0500 00 0 00000         CAL     **            PICK UP CONTROL WORD     
      00050 -0320 00 0 00121         ANA     =O77777077777 PZE FIRST,,LAST    
      00051  0100 00 0 00103         TZE     FINIS         ZERO FOR END OF LIST     
      00052  0634 00 2 00075         SXA     IR2,2    
      00053  0621 00 0 00071         STA     CAL           LOCATION OF FIRST WORD   
      00054 -0734 00 2 00000         PDX     0,2           LOCATION OF LAST WORD    
1      ASSEMBLED BY J. SPALL FOR FOREGROUND, APRIL 1965                                          PAGE 2     
                  
      00055 -3 00000 2 00062         TXL     COUNT+2,2,0   ZERO IF ONE WORD LIST    
      00056 -0634 00 2 00060         SXD     COUNT,2  
      00057  0734 00 2 00000         PAX     0,2           LOCATION OF FIRST WORD   
      00060  2 00000 2 00062  COUNT  TIX     *+2,2,**      FIRST-LAST   
      00061  0774 00 2 00000         AXT     0,2           SET COUNT TO ZERO IF EQUAL     
      00062 -0634 00 2 00074         SXD     TEST,2        SET WORD COUNT -1 FOR END TEST 
      00063  0774 00 2 00000         AXT     0,2
      00064  0520 00 0 00117  MVLST  ZET     INOUT         TEST FOR OUTPUT    
      00065  0020 00 0 00071         TRA     *+4           YES, GO TO LDQ-STR 
      00066 -1 00000 0 00000         STR                   INPUT TRAP TO (IOB)
      00067 -0600 60 0 00071         STQ*    CAL           INPUT LIST FROM (IOB)    
      00070  1 00001 2 00074         TXI     TEST,2,1      COUNTS WORDS 
      00071  0560 00 2 00000  CAL    LDQ     **,2          OUTPUT LIST FOR (IOB)    
      00072 -1 00000 0 00000         STR                   OUTPUT TRAP TO (IOB)     
      00073  1 00001 2 00074         TXI     *+1,2,1       COUNTS WORDS 
      00074 -3 00000 2 00064  TEST   TXL     MVLST,2,**    END TEST     
      00075  0774 00 2 00000  IR2    AXT     **,2          RESTORE IR2  
      00076 -0500 00 0 00002         CAL     2             SAVE (IOB) RETURN  
      00077  0602 00 0 00116         SLW     IOBC2         ..     
      00100 -0500 00 0 00040         CAL     RETURN        SET TRAP RETURN FROM MAD PROGRAM     
      00101  0602 00 0 00002         SLW     2             ..     
      00102  0020 00 0 00000  GOBACK TRA     **            RETURN FOR MORE    
                  
      00103  0520 00 0 00117  FINIS  ZET     INOUT    
      00104  0074 00 4 00002         TSX     $(WLR),4      CLOSE OUT LIST     
      00105 -0520 00 0 00117         NZT     INOUT    
      00106  0074 00 4 00003         TSX     $(RLR),4      CLOSE OUT LIST     
      00107 -0500 00 0 00114         CAL     C(0)          RESTORE CONTENTS OF LOCATIONS OF 0 AND 2   
      00110  0602 00 0 00000         SLW     0             ..     
      00111 -0500 00 0 00115         CAL     C(2)          ..     
      00112  0602 00 0 00002         SLW     2             ..     
      00113  0020 60 0 00102         TRA*    GOBACK   
      00114  0 00000 0 00000  C(0)   PZE  
      00115  0 00000 0 00000  C(2)   PZE  
      00116  0 00000 0 00000  IOBC2  PZE  
      00117  0 00000 0 00000  INOUT  PZE  
                                     END  
                  
        LITERALS  
      00120  000000000001     
      00121  077777077777     
1      ASSEMBLED BY J. SPALL FOR FOREGROUND, APRIL 1965                                          PAGE 1     
                        POST PROCESSOR ASSEMBLY DATA  
                  
        122 IS THE FIRST LOCATION NOT USED BY THIS PROGRAM  
                  
0REFERENCES TO DEFINED SYMBOLS      
         71    CAL    53,   67
         75    IR2    52
        114   C(0)    12,  107
        115   C(2)    14,  111
         74   TEST    62,   70
         60  COUNT    55,   56
        103  FINIS    51
        117  INOUT     6,   10,   27,   31,   64,  103,  105
        116  IOBC2    34,   41,   77
          6  .RBIN     0
         10  .WBIN     0,    7
         64  MVLST    74
          3  (RLR)   106
          0  (STB)    30
          1  (TSB)    32
          2  (WLR)   104
        102 GOBACK    44,  113
         37 LSTRTN    22
         40 RETURN    35,  100
         20 TPNRTN    15
                  
0 NO ERROR IN ABOVE ASSEMBLY. 




  RDAT   BCD 05/29/67 0007.4   10563         00000    
1            FAP                                                                                 PAGE 1     
                  
                              * .RDTA, .RPDTA  READ DATA SIMPLIFIED INPUT        DAGGETT  FEB. 18,1964
                                     PCC  
                                     LBL     RDATA                                                  MI
                                             REVISED BY SPALL FOR NXTCRD RETURN 4/65
1            FAP                                                                                 PAGE 2     
                                      .RDATA -- SIMPLIFIED INPUT ROUTINE            
                  
                                     TTL                .RDATA -- SIMPLIFIED INPUT ROUTINE
                                     COUNT   600                                                    MI
                              ************************************************************************
                              ************************************************************************
                              **                                                                    **
                              **                                                                    **
                              **            READ DATA SUBROUTINE FOR MAD SIMPLIFIED INPUT           **
                              **                                                                    **
                              **         CALLING SEQUENCE--                                         **
                              **                                                                    **
                              **                         TSX     .RDATA,4                           **
                              **                         PAR     LOCST                              **
                              **                                                                    **
                              **         WHERE LOCST IS THE BASE LOCATION OF THE SYMBOL TABLE.      **
                              **                                                                    **
                              **                                                                    **
                              ************************************************************************
                              ************************************************************************
                  
                  
                  
                  
                  
                       00023         ENTRY   .RDATA   
                       00021         ENTRY   .RPDTA   
                  
                  
                              ************************************************************************
                              *                                                                      *
                  
        TRANSFER VECTOR 
      00000  665126436760     WRFLX 
      00001  622563222324     SETBCD
      00002  512426436760     RDFLX 
      00003  744326634434     (LFTM)
      00004  742526634434     (EFTM)
      00005  330003030101     .03311
                  
            LINKAGE DIRECTOR  
      00006  000000000000     
      00007  335124216321     
                  
                       00006   .IR4  SYN     *-2           LOCATION OF THE LINKAGE DIRECTOR     
                              *                                                                      *
                              ************************************************************************
                  
                       77771         COMMON  -200                                                   MI
                       77661         COMMON  72                                                     MI
                       77661   LINE  COMMON  14                                                     MI
                       77643   CARD  COMMON  1                                                      MI
      00010  0 00000 0 00000  DIMFLG                                                                MI
      00011  0 00000 0 00000   PTSW                                                                 MI
      00012  0 00000 0 00000  OVRFLG                                                                MI
      00013  0 00000 0 00000   EXP                                                                  MI
      00014  0 00000 0 00000   DIM1                                                                 MI
1            FAP                                                                                 PAGE 3     
                                      .RDATA -- SIMPLIFIED INPUT ROUTINE            
                  
      00015  0 00000 0 00000   PT                                                                   MI
      00016  0 00000 0 00000   DIM2                                                                 MI
      00017  0 00000 0 00000   VALUE                                                                MI
      00020  0 00000 0 00000  BCDFLG                                                                MI
             0634 11 1 20000   ZAD   OPSYN   ZSA                                                    MI
             2 00017 1 60000   BLK   OPSYN   TIX                                                    MI
            -3 00017 1 60000  BRANCH OPSYN   TXL
            -0 17735 0 05336  PROOFF OPSYN   NULL     
                  
                                     LIST 
1            FAP                                                                                 PAGE 4     
                                      .RDATA -- SIMPLIFIED INPUT ROUTINE            
                  
                                     EJECT
                              ************************************************************************
                              *                                                                      *
                              *                              MAIN SCAN                               *
                              *                                                                      *
                              ************************************************************************
                  
      00021 -0500 00 0 00152  .RPDTA CAL     TYPE1    
      00022  0020 00 0 00024         TRA     .RDATA+1 
      00023 -0500 00 0 00050  .RDATA CAL     TXL
      00024  0630 00 0 00124         STP     SWITCH   
      00025  0634 00 1 00146         SXA     IR1,1         SAVE INDEX REGISTERS     
      00026  0634 00 2 00147         SXA     IR2,2    
      00027  0634 00 4 00150         SXA     IR4,4    
      00030 -0634 00 4 00006         SXD     .IR4,4   
      00031 -0500 00 4 00001         CAL     1,4                PICK UP LOCATION OF SYMBOL TABLE
      00032  0621 00 0 00620         STA     SYM3     
      00033 -0500 60 4 00001         CAL*    1,4                PICK UP LENGTH OF SYMBOL TABLE  
      00034  0621 00 0 00616         STA     LNSYTL   
                                     PROOFF     
      00035  0600 00 0 00020         STZ     BCDFLG             BCD FLAG
      00036  0600 00 0 00010         STZ     DIMFLG             AND DIMENSION FLAG  
      00037  0760 00 0 00140         SLF                                                         JSMI 
      00040  0074 00 4 00121  NXTCRD TSX     READ,4             BRING IN CARD 
      00041  0760 00 0 00142  SCAN   SLN     2                  INITIALIZE SIGN PLUS
      00042  0600 00 0 00020         STZ     BCDFLG             RESET BCD FLAG
      00043  0074 00 4 00144         TSX     TYPE,4             DECIDE KIND OF GROUP
      00044  0020 00 0 00276         TRA     NUMBER             CONSTANT
      00045  0020 00 0 00563         TRA     SYMBOL             VARIABLE
      00046 -3 00001 2 00041         TXL     SCAN,2,1           IGNORE EMPTY FIELDS 
      00047 -3 00002 2 00273         TXL     POINT,2,2          CONSTANT BEGINNING WITH . 
      00050 -3 00003 2 00732  TXL    TXL     BCD,2,3       $
1            FAP                                                                                 PAGE 5     
                                      .RDATA -- SIMPLIFIED INPUT ROUTINE            
                  
                                     EJECT
                              ************************************************************************
                              *                                                                      *
                              *                    ILLEGAL CHARACTER SUBROUTINE                      *
                              *                                                                      *
                              ************************************************************************
                  
      00051 -0500 00 1 77660  ILCHAR CAL     LINE-1,1 
      00052 -0501 00 0 01056         ORA     =O6000             ADD BLANK     
      00053  0621 00 0 00103         STA     BDCH+6             INSERT ILLEGAL CHARACTER  
      00054  0634 00 1 00055         SXA     *+1,1    
      00055 -0774 00 1 00000         AXC     **,1          GET COLUMN NUMBER  
      00056  0754 00 1 00000         PXA     0,1
      00057  0765 00 0 00043         LRS     35 
      00060  0221 00 0 01053         DVP     =10
      00061  0621 00 0 00102         STA     BDCH+5             AND STORE     
      00062  0763 00 0 00051         LLS     41 
      00063 -0602 00 0 00102         ORS     BDCH+5   
      00064  0074 00 4 01033         TSX     CRDOUT,4           SEND OUT BAD CARD   
      00065  0074 00 4 00000         TSX     $WRFLX,4 
      00066  0 00007 0 00075                 BDCH,,7                                                MI
      00067  0074 00 4 00000  ERR    TSX     $WRFLX,4 
      00070  0 00011 0 00104                 MES1,,LMES1    
      00071  0074 00 4 00000         TSX     WRFLX,4  
      00072  0 00004 0 00115                 MES2,,LMES2    
      00073  0074 00 4 00001         TSX     $SETBCD,4
      00074  0020 00 0 00037         TRA     NXTCRD-1                                          JSMI   
      00075  545454545460     BDCH   BCI     7,***** ILLEGAL CHARACTER IN COLUMN 00,    0 
      00076  314343252721     
      00077  436023302151     
      00100  212363255160     
      00101  314560234643     
      00102  644445600000     
      00103  736060606000     
      00104  606346604751     MES1   BCI     9, TO PROCEED, RETYPE THIS CARD AND ALL SUCCEEDING ONES. 
      00105  462325252473     
      00106  605125637047     
      00107  256063303162     
      00110  602321512460     
      00111  214524602143     
      00112  436062642323     
      00113  252524314527     
      00114  604645256233     
                       00011  LMES1  SYN     *-MES1   
      00115  606060466330     MES2   BCI     4,   OTHERWISE, HIT QUIT.  
      00116  255166316225     
      00117  736030316360     
      00120  506431633360     
                       00004  LMES2  SYN     *-MES2   
1            FAP                                                                                 PAGE 6     
                                      .RDATA -- SIMPLIFIED INPUT ROUTINE            
                  
                                     EJECT
                              ************************************************************************
                              *                                                                      *
                              *                           READ SUBROUTINE                            *
                              *                                                                      *
                              ************************************************************************
                  
                       00121   READ  SYN     *                                                      MI
                              *                                                                     MI
      00121  0634 00 4 00142         SXA     RIR4,4   
      00122  0074 00 4 00002         TSX     $RDFLX,4 
      00123  0 00016 0 77643         PZE     CARD,,14 
 TD   00124 -3 00000 0 00127  SWITCH BRANCH  SWH
      00125  0074 00 4 00000         TSX     WRFLX,4  
      00126  0 00016 0 77643                 CARD,,14                                             JSMI
                       00127  SWH    SYN     *  
      00127  0774 00 1 00014         AXT     12,1     
      00130  0774 00 2 00000         AXT     0,2
      00131  0774 00 4 00006  SPLATR AXT     6,4                BREAK DOWN INTO ONE 
      00132  0560 00 1 77657         LDQ     CARD+12,1          CHARACTER PER LOCATION    
      00133 -0754 00 0 00000  CHAR   ZAC  
      00134 -0763 00 0 00006         LGL     6  
      00135  0602 00 2 77661         SLW     LINE,2   
      00136  1 77777 2 00137         TXI     *+1,2,-1 
      00137  2 00001 4 00133         TIX     CHAR,4,1 
      00140  2 00001 1 00131         TIX     SPLATR,1,1     
      00141  0774 00 1 00000         AXT     0,1                RESET CHARACTER INDEX     
      00142  0774 00 4 00000  RIR4   AXT     **,4     
      00143  0020 00 4 00001         TRA     1,4                AND EXIT
1            FAP                                                                                 PAGE 7     
                                      .RDATA -- SIMPLIFIED INPUT ROUTINE            
                  
                                     EJECT
                              ************************************************************************
                              *                                                                      *
                              *                           TYPE SUBROUTINE                            *
                              *                                                                      *
                              *          EXITS--                                                     *
                              *                                                                      *
                              *                  DIGITS              TRA*    1,4                     *
                              *                  LETTERS             TRA*    2,4                     *
                              *                  OPERATORS           TRA     3,4                     *
                              *                                                                      *
                              *          FLAG SETTINGS--                                             *
                              *                                                                      *
                              *                 IR2                  SYMBOLS                         *
                              *                                                                      *
                              *                  0                   ,   =   LETTER E                *
                              *                  1                   *   RC   LETTER B               *
                              *                  2                   .  LETTER K                     *
                              *                  3                   $                               *
                              *                  4                   (                               *
                              *                  5                   )                               *
                              *                                                                      *
                              ************************************************************************
                  
      00144 -0760 00 0 00144  TYPE   SLT     4                  IS READING TERMINATED     
      00145  1 77777 1 00152         TXI     TYPE1,1,-1         NO
      00146  0774 00 1 00000  IR1    AXT     **,1               YES, RESTORE INDEX REGISTERS    
      00147  0774 00 2 00000  IR2    AXT     **,2     
                              *                                                                     MI
      00150  0774 00 4 00000  IR4    AXT     **,4     
      00151  0020 00 4 00002         TRA     2,4                EXIT TO CALLING PROGRAM   
      00152  3 77667 1 00156  TYPE1  TXH     TYPE2,1,-73        TEST FOR END OF CARD
      00153 -3 77666 1 00040         TXL     NXTCRD,1,-74   
      00154  0774 00 2 00001         AXT     1,2                                                    MI
      00155  0020 00 4 00003         TRA     3,4                                                    MI
      00156 -0500 00 1 77660  TYPE2  CAL     LINE-1,1           PICK UP CHARACTER   
      00157  0734 00 2 00000         PAX     0,2
      00160  0020 00 2 00272         TRA     CHARAC,2           DETERMINE TYPE
      00161  0520 00 0 00020  ASTER  ZET     BCDFLG             TEST FOR BCD MODE   
      00162  0020 60 4 00002         TRA*    2,4                RETURN CHARACTER IN BCD MODE    
      00163  0760 00 0 00144         SLN     4                  SET TERMINATION SWITCH    
      00164  0020 00 4 00003  OP     TRA     3,4                OPERATOR RETURN     
      00165 -0520 00 0 00020  MINUS  NZT     BCDFLG             TEST FOR BCD MODE   
      00166 -0760 00 0 00142         SLT     2                  LIGHT OFF FOR MINUS 
      00167  0020 00 0 00211         TRA     CONERR             CONDITIONAL ERROR   
      00170 -0520 00 0 00020  IGNORE NZT     BCDFLG             CHECK BCD MODE
      00171  1 77777 1 00152         TXI     TYPE1,1,-1         NO
      00172  0020 60 4 00002         TRA*    2,4                DO NOT IGNORE IF BETWEEN $
                  
                  
                                                          CHARACTER TABLE     
                  
      00173  0020 00 0 00051         TRA     ILCHAR             77   ILLEGAL CHARACTER    
      00174  0020 00 0 00051         TRA     ILCHAR             76   ILLEGAL CHARACTER    
      00175  0020 00 0 00051         TRA     ILCHAR             75   ILLEGAL CHARACTER    
1            FAP                                                                                 PAGE 8     
                                      .RDATA -- SIMPLIFIED INPUT ROUTINE            
                  
      00176  1 77710 2 00164         TXI     OP,2,-56           74   (  
      00177  1 77705 2 00164         TXI     OP,2,-59           73   ,  
      00200  0020 00 0 00051         TRA     ILCHAR             72   RM 
      00201  0020 60 4 00002         TRA*    2,4                71   Z  
      00202  0020 60 4 00002         TRA*    2,4                70   Y  
      00203  0020 60 4 00002         TRA*    2,4                67   X  
      00204  0020 60 4 00002         TRA*    2,4                66   W  
      00205  0020 60 4 00002         TRA*    2,4                65   V  
      00206  0020 60 4 00002         TRA*    2,4                64   U  
      00207  0020 60 4 00002         TRA*    2,4                63   T  
      00210  0020 60 4 00002         TRA*    2,4                62   S  
      00211  0520 00 0 00020  CONERR ZET     BCDFLG             61   /  
      00212  0020 00 0 00170         TRA     IGNORE             60   BLANK    
      00213  0020 00 0 00051         TRA     ILCHAR             57   ILLEGAL CHARACTER    
      00214  0020 00 0 00051         TRA     ILCHAR             56   ILLEGAL CHARACTER    
      00215  0020 00 0 00051         TRA     ILCHAR             55   ILLEGAL CHARACTER    
      00216  1 77725 2 00161         TXI     ASTER,2,-43        54   *  
      00217  1 77730 2 00164         TXI     OP,2,-40           53   $  
      00220  0020 00 0 00051         TRA     ILCHAR             52   -0 
      00221  0020 60 4 00002         TRA*    2,4                51   R  
      00222  0020 60 4 00002         TRA*    2,4                50   Q  
      00223  0020 60 4 00002         TRA*    2,4                47   P  
      00224  0020 60 4 00002         TRA*    2,4                46   O  
      00225  0020 60 4 00002         TRA*    2,4                45   N  
      00226  0020 60 4 00002         TRA*    2,4                44   M  
      00227  0020 60 4 00002         TRA*    2,4                43   L  
      00230  1 77740 2 00231         TXI     *+1,2,-32          42   K  
      00231  0020 60 4 00002         TRA*    2,4                41   J  
      00232  0020 00 0 00165         TRA     MINUS              40   - (MINUS)
      00233  0020 00 0 00051         TRA     ILCHAR             37   ILLEGAL CHARACTER    
      00234  0020 00 0 00051         TRA     ILCHAR             36   ILLEGAL CHARACTER    
      00235  0020 00 0 00051         TRA     ILCHAR             35   ILLEGAL CHARACTER    
      00236  1 77751 2 00164         TXI     OP,2,-23           34   )  
      00237  1 77747 2 00164         TXI     OP,2,-25           33   .  
      00240  0020 00 0 00051         TRA     ILCHAR             32   +0 
      00241  0020 60 4 00002         TRA*    2,4                31   I  
      00242  0020 60 4 00002         TRA*    2,4                30   H  
      00243  0020 60 4 00002         TRA*    2,4                27   G  
      00244  0020 60 4 00002         TRA*    2,4                26   F  
      00245  1 77753 2 00246         TXI     *+1,2,-21          25   E  
      00246  0020 60 4 00002         TRA*    2,4                24   D  
      00247  0020 60 4 00002         TRA*    2,4                23   C  
      00250  1 77757 2 00251         TXI     *+1,2,-17          22   B  
      00251  0020 60 4 00002         TRA*    2,4                21   A  
      00252  0020 00 0 00170         TRA     IGNORE             20   +  
      00253  0020 00 0 00051         TRA     ILCHAR             17   ILLEGAL CHARACTER    
      00254  0020 00 0 00051         TRA     ILCHAR             16   ILLEGAL CHARACTER    
      00255  0020 00 0 00051         TRA     ILCHAR             15   ILLEGAL CHARACTER    
      00256  0020 00 0 00211         TRA     CONERR             14   '  
      00257  1 77765 2 00164         TXI     OP,2,-11           13   =  
      00260  0020 00 0 00051         TRA     ILCHAR             12   ILLEGAL CHARACTER    
      00261  0020 60 4 00001         TRA*    1,4                11   9  
      00262  0020 60 4 00001         TRA*    1,4                10   8  
      00263  0020 60 4 00001         TRA*    1,4                07   7  
      00264  0020 60 4 00001         TRA*    1,4                06   6  
1            FAP                                                                                 PAGE 9     
                                      .RDATA -- SIMPLIFIED INPUT ROUTINE            
                  
      00265  0020 60 4 00001         TRA*    1,4                05   5  
      00266  0020 60 4 00001         TRA*    1,4                04   4  
      00267  0020 60 4 00001         TRA*    1,4                03   3  
      00270  0020 60 4 00001         TRA*    1,4                02   2  
      00271  0020 60 4 00001         TRA*    1,4                01   1  
      00272  0020 60 4 00001  CHARAC TRA*    1,4                00   0  
1            FAP                                                                                 PAGE 10    
                                      .RDATA -- SIMPLIFIED INPUT ROUTINE            
                  
                                     EJECT
                              ************************************************************************
                              *                                                                      *
                              *                     NUMERICAL CONVERSION SCAN                        *
                              *                                                                      *
                              ************************************************************************
                  
      00273 -0625 00 0 00011  POINT  STL     PTSW               ENTRY IF . IS FIRST CHARACTER   
      00274  0600 00 1 77660         STZ     LINE-1,1           CHANGE . TO ZERO    
      00275  0020 00 0 00277         TRA     *+2
      00276  0600 00 0 00011  NUMBER STZ     PTSW               ENTRY IF DIGIT IS FIRST   
      00277  0600 00 0 00012         STZ     OVRFLG             INITIALIZE    
      00300  0600 00 0 00013         STZ     EXP
      00301  0600 00 0 00015         STZ     PT 
      00302  0074 00 4 00003         TSX     $(LFTM),4
      00303  0634 00 1 00331         SXA     OCTIR1,1           SAVE INDEX OF FIRST DIGIT 
      00304  0074 00 4 01005         TSX     CONVRT,4           BEGIN CONVERSION    
      00305  0020 00 0 00315         TRA     DIGIT         NEXT CHARACTER IS A DIGIT                MI
      00306  0020 00 0 00323         TRA     LETTER                                                 MI
      00307 -3 00001 2 00477         TXL     ENDNUM,2,1         , = * RC
      00310  3 00002 2 00051         TXH     ILCHAR,2,2         ILLEGAL CHARACTER   
      00311  0520 00 0 00011         ZET     PTSW               . 
      00312  0020 00 0 00051         TRA     ILCHAR             MORE THAN ONE .     
      00313 -0625 00 0 00011         STL     PTSW     
      00314  0020 00 0 00144         TRA     TYPE               CHECK NEXT CHARACTER
      00315 -0520 00 0 00011  DIGIT  NZT     PTSW               HAS . BEEN PASSED   
      00316  0020 00 0 01020         TRA     CNVRT2             NO, GO ON TO NEXT CHARACTER     
      00317  0500 00 0 00015         CLA     PT                 YES     
      00320  0400 00 0 01051         ADD     =1                 COUNT DIGITS TO RIGHT OF .
      00321  0601 00 0 00015         STO     PT 
      00322  0020 00 0 01020         TRA     CNVRT2             GO ON TO NEXT CHARACTER   
      00323 -3 00000 2 00430  LETTER TXL     ECON,2,0           LETTER E
      00324 -3 00001 2 00401         TXL     BOOL,2,1           LETTER B
      00325  3 00002 2 00051         TXH     ILCHAR,2,2         ILLEGAL LETTER
      00326  0520 00 0 00011         ZET     PTSW               LETTER K
      00327  0020 00 0 00412         TRA     MODERR             NO POINTS IN OCTAL CONSTANT     
      00330  0600 00 0 00017         STZ     VALUE    
      00331  0774 00 1 00000  OCTIR1 AXT     **,1               RESET XC TO BEGINNING OF FIELD  
      00332 -0500 00 1 77660         CAL     LINE-1,1           PICK UP FIRST DIGIT 
      00333  0771 00 0 00003  DIGIT1 ARS     3  
      00334 -0100 00 0 00051         TNZ     ILCHAR             NUMBER GREATER THAN SEVEN 
      00335  0560 00 0 00017         LDQ     VALUE    
      00336 -0763 00 0 00003         LGL     3                  BUILD UP OCTAL WORD 
      00337 -0100 00 0 00361         TNZ     LRGNUM             TOO MANY DIGITS IN NUMBER 
      00340 -0130 00 0 00000         XCL  
      00341 -0501 00 1 77660         ORA     LINE-1,1           ADD THIS CHARACTER  
      00342  0602 00 0 00017         SLW     VALUE    
      00343  0074 00 4 00144         TSX     TYPE,4             CHECK NEXT CHARACTER
      00344  0020 00 0 00333         TRA     DIGIT1             DIGIT   
      00345  0020 00 0 00346         TRA     *+1                LETTER MUST BE  K   
      00346  0560 00 0 00017         LDQ     VALUE              SAVE VALUE IN MQ    
      00347  0074 00 4 00773         TSX     EXPCON,4           CONVERT SCALE FACTOR
      00350  3 00001 2 00051         TXH     ILCHAR,2,1         ILLEGAL OPERATOR    
      00351  0734 00 2 00000         PAX     0,2
      00352  3 00013 2 00361         TXH     LRGNUM,2,11        SCALE FACTOR MORE THAN 11 
1            FAP                                                                                 PAGE 11    
                                      .RDATA -- SIMPLIFIED INPUT ROUTINE            
                  
      00353  0767 00 0 00001         ALS     1                  MULTIPLY SCALE FACTOR BY 3
      00354  0400 00 0 00017         ADD     VALUE    
      00355  0621 00 0 00357         STA     SHIFT    
      00356 -0754 00 0 00000         ZAC  
      00357 -0763 00 0 00000  SHIFT  LGL     ** 
      00360  0100 00 0 00375         TZE     NOSHFT   
      00361  0074 00 4 01033  LRGNUM TSX     CRDOUT,4           SEND OUT BAD CARD   
      00362  0074 00 4 00000         TSX     WRFLX,4  
      00363  0 00010 0 00365                 OVER,,8                                                MI
      00364  0020 00 0 00067         TRA     ERR
      00365  466525512643     OVER   BCI     8,OVERFLOW, SOME NUMBER TOO LARGE (OR TOO SMALL)   
      00366  466673606246     
      00367  442560456444     
      00370  222551606346     
      00371  466043215127     
      00372  256074465160     
      00373  634646606244     
      00374  214343346060     
      00375  0131 00 0 00000  NOSHFT XCA  
      00376  0074 00 4 01027         TSX     SIGN+1,4           AFFIX SIGN    
      00377  0534 00 2 00410         LXA     MODE,2   
      00400  0020 00 0 00507         TRA     STORE1   
      00401  0074 00 4 01026  BOOL   TSX     SIGN,4             BOOLEAN CONSTANT    
      00402 -0120 00 0 00412         TMI     MODERR             NEGATIVE BOOLEAN CONSTANT 
      00403  0520 00 0 00011         ZET     PTSW               HAS . BEEN PASSED   
      00404  0020 00 0 00412         TRA     MODERR             NO . IN BOOLEAN CONSTANT  
      00405  0402 00 0 01052         SUB     =2 
      00406  0120 00 0 00412         TPL     MODERR             LARGER THAN ONE     
      00407 -0500 00 0 00017         CAL     VALUE    
      00410  0774 00 2 00000  MODE   AXT     **,2               XB = MODE CODE
      00411  3 00001 2 00507         TXH     STORE1,2,1         CHECK LAST VARIABLE FOR BOOLEAN 
      00412  0074 00 4 01033  MODERR TSX     CRDOUT,4           SEND OUT BAD CARD   
      00413  0074 00 4 00000         TSX     WRFLX,4  
      00414  0 00012 0 00416                 MODER1,,10                                             MI
      00415  0020 00 0 00067         TRA     ERR
      00416  314565214331     MODER1 BCI     5,INVALID MODE FOR SOME NUMBER   
      00417  246044462425     
      00420  602646516062     
      00421  464425604564     
      00422  442225516060     
      00423  465160314343            BCI     5,OR ILLEGAL CHARACTER IN NUMBER 
      00424  252721436023     
      00425  302151212363     
      00426  255160314560     
      00427  456444222551     
      00430  0074 00 4 01026  ECON   TSX     SIGN,4             SET SIGN
      00431  0131 00 0 00000         XCA                        AND SAVE IN MQ
      00432  0074 00 4 00773         TSX     EXPCON,4           CONVERT EXPONENT    
      00433  3 00001 2 00051         TXH     ILCHAR,2,1         ILLEGAL OPERATOR    
      00434  0074 00 4 01027         TSX     SIGN+1,4           AND ATTACH SIGN     
      00435  0601 00 0 00013         STO     EXP
      00436  0131 00 0 00000         XCA  
      00437  0621 00 0 00513  FPOINT STA     FPCON              SAVE LOWER 15 BITS  
      00440  0771 00 0 00017         ARS     15                 SHIFT CHARACTERISTIC CLEAR
      00441 -0501 00 0 01061         ORA     =O252000000000 
1            FAP                                                                                 PAGE 12    
                                      .RDATA -- SIMPLIFIED INPUT ROUTINE            
                  
      00442 -0120 00 0 00445         TMI     *+3                SUBTRACT IF NEGATIVE
      00443  0300 00 0 00513         FAD     FPCON              RESTORE SHIFTED PART
      00444  0020 00 0 00446         TRA     *+2
      00445  0302 00 0 00513         FSB     FPCON              RESTORE SHIFTED PART
      00446  0760 00 0 00011         FRN                        AND ROUND     
      00447  0131 00 0 00000         XCA  
      00450  0500 00 0 00013         CLA     EXP                GENERATE TRUE DECIMAL EXPONENT  
      00451  0402 00 0 00015         SUB     PT 
      00452  0400 00 0 00012         ADD     OVRFLG   
      00453  0734 00 2 00000         PAX     0,2
      00454  3 00046 2 00361         TXH     LRGNUM,2,38        EXPONENT TOO LARGE  
      00455 -0120 00 0 00462         TMI     *+5                DIVIDE IF MINUS     
      00456  0260 00 2 00562         FMP     PWRTEN,2           MULTIPLY BY APPROPRIATE POWER OF 10   
      00457  0760 00 0 00011         FRN                        AND ROUND     
      00460  0140 00 0 00361         TOV     LRGNUM             TEST FOR FLOATING POINT OVERFLOW
      00461  0020 00 0 00466         TRA     *+5
      00462  0131 00 0 00000         XCA  
      00463  0241 00 2 00562         FDP     PWRTEN,2           DIVIDE BY APPROPRIATE POWER OF 10     
      00464  0161 00 0 00361         TQO     LRGNUM             TEST FOR OVERFLOW   
      00465  0131 00 0 00000         XCA  
      00466  0534 00 2 00410         LXA     MODE,2             CHECK MODE OF LAST VARIABLE     
      00467 -3 00000 2 00507         TXL     STORE1,2,0         FLOATING POINT MODE 
      00470  3 00001 2 00412         TXH     MODERR,2,1         BOOLEAN MODE  
      00471 -0300 00 0 01060         UFA     =O233000000000     INTEGER MODE  
      00472  0765 00 0 00033         LRS     27                                                     MI
      00473  0322 00 0 01055         ERA     =O233         REMOVES CHARACTERISTIC                   MI
      00474 -0100 00 0 00361         TNZ     LRGNUM             NUMBER TOO LARGE FOR INTEGER    
      00475  0763 00 0 00033         LLS     27 
      00476  0020 00 0 00507         TRA     STORE1   
      00477  0074 00 4 01026  ENDNUM TSX     SIGN,4             AFFIX SIGN    
      00500  0520 00 0 00011         ZET     PTSW               HAS . BEEN PASSED   
      00501  0020 00 0 00437         TRA     FPOINT             YES     
      00502  0534 00 2 00410         LXA     MODE,2             CHECK MODE    
      00503  3 00001 2 00412         TXH     MODERR,2,1         BOOLEAN 
      00504 -3 00000 2 00437         TXL     FPOINT,2,0         FLOATING POINT
      00505  0520 00 0 00012         ZET     OVRFLG             HAS INTEGER OVERFLOWED    
      00506  0020 00 0 00361         TRA     LRGNUM             YES     
      00507  3 00002 2 00412  STORE1 TXH     MODERR,2,2         MODE OTHER THAN INT., F.P., OR BOOL.  
      00510  0074 00 4 00706         TSX     STORE,4            STORE VALUE IN PROGRAM    
      00511  0074 00 4 00004         TSX    $(EFTM),4 
      00512  0020 00 0 00041         TRA     SCAN     
      00513 +233000000000     FPCON  OCT     233000000000   
                  
                  
                                                          POWERS OF TEN 
                  
      00514 +377454732313            DEC     1E38,1E37,1E36,1E35,1E34,1E33,1E32,1E31,1E30,1E29,1E28   
      00515 +373741367021     
      00516 +370601137164     
      00517 +365464114135     
      00520 +361755023373     
      00521 +356612334311     
      00522 +353473426555     
      00523 +347770675742     
      00524 +344623713116     
1            FAP                                                                                 PAGE 13    
                                      .RDATA -- SIMPLIFIED INPUT ROUTINE            
                  
      00525 +341503074077     
      00526 +336402374714     
      00527 +332635456171            DEC     1E27,1E26,1E25,1E24,1E23,1E22,1E21,1E20,1E19,1E18,1E17   
      00530 +327512676456     
      00531 +324410545213     
      00532 +320647410336     
      00533 +315522640262     
      00534 +312417031702     
      00535 +306661534466     
      00536 +303532743536     
      00537 +300425434430     
      00540 +274674055532     
      00541 +271543212741     
      00542 +266434157116            DEC     1E16,1E15,1E14,1E13,1E12,1E11,1E10,1E9,1E8,1E7,1E6,1E5   
      00543 +262706576512     
      00544 +257553630410     
      00545 +254443023471     
      00546 +250721522451     
      00547 +245564416672     
      00550 +242452013710     
      00551 +236734654500     
      00552 +233575360400     
      00553 +230461132000     
      00554 +224750220000     
      00555 +221606500000     
      00556 +216470400000            DEC     1E4,1E3,1E2,1E1
      00557 +212764000000     
      00560 +207620000000     
      00561 +204500000000     
      00562 +201400000000     PWRTEN DEC     1E0
1            FAP                                                                                 PAGE 14    
                                      .RDATA -- SIMPLIFIED INPUT ROUTINE            
                  
                                     EJECT
                              ************************************************************************
                              *                                                                      *
                              *                            VARIABLE SCAN                             *
                              *                                                                      *
                              ************************************************************************
                  
      00563 -0760 00 0 00141  SYMBOL SLT     1                  WAS LAST FIELD A VARIABLE 
      00564  0020 00 0 00566         TRA     *+2                NO
      00565  0020 00 0 00051         TRA     ILCHAR             YES     
      00566  0600 00 0 00016         STZ     DIM2               INITIALIZE    
      00567  0600 00 0 00017         STZ     VALUE    
      00570  0560 00 0 01062         LDQ     =O606060606060     LOAD BLANKS   
      00571  0760 00 0 00141         SLN     1                  TURN ON VARIABLE SWITCH   
      00572 -0500 00 0 00017  SYM1   CAL     VALUE              BUILD UP SYMBOL     
      00573  0767 00 0 00006         ALS     6  
      00574 -0501 00 1 77660         ORA     LINE-1,1 
      00575  0602 00 0 00017         SLW     VALUE    
      00576  0074 00 4 00144         TSX     TYPE,4             CHECK NEXT CHARACTER
      00577  0020 00 0 00572         TRA     SYM1               DIGIT   
      00600  0020 00 0 00572         TRA     SYM1               LETTER  
      00601 -0500 00 0 00017         CAL     VALUE    
      00602 -0765 00 0 00006         LGR     6                  LEFT ADJUST WITH TRAILING BLANKS
      00603 -0100 00 0 00602         TNZ     *-1
      00604 -3 00001 2 00616         TXL     LNSYTL,2,1         , = * RC
      00605 -3 00003 2 00051         TXL     ILCHAR,2,3         ILLEGAL CHARACTERS  
      00606  3 00004 2 00051         TXH     ILCHAR,2,4         ILLEGAL CHARACTERS  
      00607  0074 00 4 00773  SYM2   TSX     EXPCON,4           CONVERT SUBSCRIPT TO BINARY     
      00610  0402 00 0 01057         SUB     =O77777            CHECK SIZE OF SUBSCRIPT   
      00611  0120 00 0 00711         TPL     SUBERR             SUBSCRIPT TOO LARGE 
      00612 -3 00000 2 00642         TXL     SYM4,2,0           DOUBLE SUBSCRIPT    
      00613 -3 00004 2 00051         TXL     ILCHAR,2,4         ILLEGAL CHARACTERS  
      00614  0074 00 4 01026         TSX     SIGN,4             AFFIX SIGN    
      00615  0601 00 0 00016         STO     DIM2               SECOND OR SINGLE SUBSCRIPT
      00616  0774 00 2 00000  LNSYTL AXT     **,2               XB = LENGTH OF SYMBOL TABLE     
      00617 -0130 00 0 00000         XCL                        VARIABLE NAME FROM MQ     
      00620 -0340 00 2 00000  SYM3   LAS     **,2               SEARCH SYMBOL TABLE 
      00621  0020 00 0 00623         TRA     *+2
      00622  1 77777 2 00647         TXI     SYM5,2,-1          FOUND   
      00623  2 00002 2 00620         TIX     SYM3,2,2 
      00624  0602 00 0 00632         SLW     MSVAR+1            NOT FOUND     
      00625  0074 00 4 01033         TSX     CRDOUT,4           SEND OUT CARD IMAGE 
      00626  0074 00 4 00000         TSX     WRFLX,4  
      00627  0 00011 0 00631                 MSVAR,,9                                               MI
      00630  0020 00 0 00067         TRA     ERR
      00631  545454546060     MSVAR  BCI     9,****  000000 IS NOT A VARIABLE IN THE CALLING PROGRAM  
      00632  000000000000     
      00633  603162604546     
      00634  636021606521     
      00635  513121224325     
      00636  603145606330     
      00637  256023214343     
      00640  314527604751     
      00641  462751214460     
      00642 -0760 00 0 00141  SYM4   SLT     1  
1            FAP                                                                                 PAGE 15    
                                      .RDATA -- SIMPLIFIED INPUT ROUTINE            
                  
      00643  0020 00 0 00711         TRA     SUBERR             MORE THAN TWO SUBSCRIPTS  
      00644  0074 00 4 01026         TSX     SIGN,4             AFFIX SIGN    
      00645  0601 00 0 00014         STO     DIM1               FIRST SUBSCRIPT     
      00646  0020 00 0 00607         TRA     SYM2               GO FOR SECOND 
      00647  0560 60 0 00620  SYM5   LDQ*    SYM3     
      00650 -0754 00 0 00000         ZAC  
      00651 -0763 00 0 00003         LGL     3  
      00652  0602 00 0 00010         SLW     DIMFLG             NON-ZERO IF DIMENSIONED   
      00653 -0763 00 0 00017         LGL     15 
      00654  0767 00 0 00017         ALS     15 
      00655 -0763 00 0 00003         LGL     3  
      00656  0622 00 0 00700         STD     SYM7               LOCATION OF DIMENSION VECTOR    
      00657  0621 00 0 00410         STA     MODE               MODE    
      00660 -0763 00 0 00017         LGL     15 
      00661 -0760 00 0 00141         SLT     1                  ARE THERE TWO SUBSCRIPTS  
      00662  0020 00 0 00671         TRA     SYM6               YES     
      00663 -0520 00 0 00016         NZT     DIM2               ARE THERE ANY SUBSCRIPTS  
      00664  0020 00 0 00703         TRA     SYM8               NO
      00665 -0520 00 0 00010         NZT     DIMFLG             IS VARIABLE DIMENSIONED   
      00666  0020 00 0 00711         TRA     SUBERR             NO
      00667 -0400 00 0 00016         SBM     DIM2               COMPUTE TRUE ADDRESS
      00670  0020 00 0 00703         TRA     SYM8     
      00671 -0534 00 4 00700  SYM6   LXD     SYM7,4   
      00672 -3 00000 4 00711         TXL     SUBERR,4,0         NO DIMENSION VECTOR IF TAKEN    
      00673  0621 00 0 00700         STA     SYM7     
      00674  0500 00 0 00014         CLA     DIM1               COMPUTE LINEAR SUBSCRIPT  
      00675  0560 00 0 00016         LDQ     DIM2     
      00676  0634 00 1 00701         SXA     SYM7+1,1                                               MI
      00677  0074 00 4 00005         TSX     $.03311,4                                              MI
      00700  2 00000 0 00000  SYM7   BLK     **,,**   
      00701  0774 00 1 00000         AXT     **,1     
      00702 -0400 00 0 00700         SBM     SYM7               COMPUTE TURE ADDRESS
      00703  0621 00 0 00724  SYM8   STA     LOC                STORE LOCATION OF VARIABLE
      00704  0760 00 0 00141         SLN     1                  EXIT    
      00705  0020 00 0 00041         TRA     SCAN     
                  
                  
                                                      SUBROUTINE TO STORE VALUE     
                  
      00706 -0760 00 0 00141  STORE  SLT     1                  WAS LAST FIELD A VARIABLE 
      00707  0520 00 0 00010         ZET     DIMFLG             OR WAS LAST VARIABLE DIMENSIONED
      00710  0020 00 0 00723         TRA     ST1                                                    MI
      00711  0074 00 4 01033  SUBERR TSX     CRDOUT,4           SEND OUT BAD CARD   
      00712  0074 00 4 00000         TSX     WRFLX,4  
      00713  0 00006 0 00715                 DIMER,,6                                               MI
      00714  0020 00 0 00067         TRA     ERR
      00715  243144254562     DIMER  BCI     6,DIMENSIONING OR SUBSCRIPTING ERROR   
      00716  314645314527     
      00717  604651606264     
      00720  226223513147     
      00721  633145276025     
      00722  515146516060     
      00723  0634 00 4 00725   ST1   SXA     T1,4                                                   MI
                              *                                                                     MI
      00724  0601 00 0 00000  LOC    STO     **                 STORE VALUE   
1            FAP                                                                                 PAGE 16    
                                      .RDATA -- SIMPLIFIED INPUT ROUTINE            
                  
                              *                                                                     MI
      00725  0774 00 4 00000  T1     AXT     **,4     
      00726 -0500 00 0 00724         CAL     LOC
      00727  0402 00 0 01051         SUB     =1                 DECREMENT LOC 
      00730  0621 00 0 00724         STA     LOC
      00731  0020 00 4 00001         TRA     1,4
1            FAP                                                                                 PAGE 17    
                                      .RDATA -- SIMPLIFIED INPUT ROUTINE            
                  
                                     EJECT
                              ************************************************************************
                              *                                                                      *
                              *                      BCD CONVERSION SUBROUTINE                       *
                              *                                                                      *
                              ************************************************************************
                  
      00732 -0625 00 0 00020  BCD    STL     BCDFLG             SET BCD FLAG  
      00733  0534 00 2 00410         LXA     MODE,2             CHECK MODE    
      00734 -3 00000 2 00412         TXL     MODERR,2,0         FLOATING POINT
      00735  3 00001 2 00412         TXH     MODERR,2,1         BOOLEAN 
      00736 -0500 00 0 01051  BCD1   CAL     =1                 INITIALIZE OVERFLOW TRIGGER     
      00737  0602 00 0 00017         SLW     VALUE    
      00740  0140 00 0 00741         TOV     *+1                MAKE SURE LIGHT IS OFF    
      00741  0074 00 4 00144  BCD2   TSX     TYPE,4             CHECK NEXT CHARACTER
      00742  0020 00 0 00760         TRA     BCD3               DIGIT   
      00743  0020 00 0 00760         TRA     BCD3               LETTER  
      00744 -3 00000 2 00760         TXL     BCD3,2,0           , =     
      00745  3 00001 2 00750         TXH     *+3,2,1  
      00746  0074 00 4 00121         TSX     READ,4             CONTINUE SCAN ON NEXT CARD
      00747  0020 00 0 00740         TRA     BCD2-1   
      00750 -3 00002 2 00760         TXL     BCD3,2,2 
      00751  3 00003 2 00760         TXH     BCD3,2,3 
      00752  0560 00 0 01062         LDQ     =O606060606060     DOLLAR SIGN   
      00753 -0500 00 0 00017         CAL     VALUE    
      00754 -0763 00 0 00006         LGL     6                  LEFT ADJUST WITH TRAILING BLANKS
      00755 -0140 00 0 00754         TNO     *-1
      00756  0602 00 0 00017         SLW     VALUE    
      00757  1 00001 1 00765         TXI     BCD4,1,1           BACK UP OVER $
      00760 -0500 00 0 00017  BCD3   CAL     VALUE              BUILD UP BCD WORD   
      00761  0767 00 0 00006         ALS     6  
      00762 -0501 00 1 77660         ORA     LINE-1,1 
      00763  0602 00 0 00017         SLW     VALUE    
      00764 -0140 00 0 00741         TNO     BCD2     
      00765  0074 00 4 01026  BCD4   TSX     SIGN,4             SET SIGN
      00766  0074 00 4 00706         TSX     STORE,4            STORE WORD    
      00767 -0500 00 1 77661         CAL     LINE,1             CHECK NEXT CHARACTER FOR $
      00770  0402 00 0 01054         SUB     =O53     
      00771 -0100 00 0 00736         TNZ     BCD1               NOT $   
      00772  1 77777 1 00041         TXI     SCAN,1,-1          SPACE OVER $  
1            FAP                                                                                 PAGE 18    
                                      .RDATA -- SIMPLIFIED INPUT ROUTINE            
                  
                                     EJECT
                              ************************************************************************
                              *                                                                      *
                              *                  EXPONENT AND SCALE FACTOR CONVERTER                 *
                              *                                                                      *
                              ************************************************************************
                  
      00773  0634 00 4 01002  EXPCON SXA     EXPC1,4  
      00774  0600 00 0 00017         STZ     VALUE              INITIALIZE    
      00775  0140 00 0 00776         TOV     *+1
      00776  0161 00 0 00777         TQO     *+1                                                    MI
      00777  0074 00 4 00144         TSX     TYPE,4             CHECK NEXT CHARACTER
      01000  0020 00 0 01010         TRA     CNVRT1             DIGIT   
      01001  0020 00 0 00051         TRA     ILCHAR             NO LETTERS IN EXPONENT    
      01002  0774 00 4 00000  EXPC1  AXT     **,4     
      01003  0500 00 0 00017         CLA     VALUE    
      01004  0020 00 4 00001         TRA     1,4                EXIT    
1            FAP                                                                                 PAGE 19    
                                      .RDATA -- SIMPLIFIED INPUT ROUTINE            
                  
                                     EJECT
                              ************************************************************************
                              *                                                                      *
                              *             GENERAL BCD TO BINARY CONVERSION SEQUENCE                *
                              *                                                                      *
                              ************************************************************************
                  
      01005 -0500 00 1 77660  CONVRT CAL     LINE-1,1           FIRST ENTRY   
      01006 -0140 00 0 01016         TNO     CONV1    
      01007  0020 00 0 01016         TRA     CONV1    
      01010 -0500 00 0 00017  CNVRT1 CAL     VALUE              MULTIPLY VALUE BY TEN     
      01011  0767 00 0 00002         ALS     2  
      01012  0400 00 0 00017         ADD     VALUE    
      01013  0767 00 0 00001         ALS     1  
      01014  0400 00 1 77660         ADD     LINE-1,1 
      01015  0140 00 0 01022         TOV     CNVRT3             CHECK FOR OVERFLOW  
      01016  0602 00 0 00017   CONV1 SLW     VALUE                                                  MI
      01017  0020 00 0 00144         TRA     TYPE                                                   MI
      01020 -0520 00 0 00012  CNVRT2 NZT     OVRFLG             CHECK FOR PAST OVERFLOW   
      01021  0020 00 0 01010         TRA     CNVRT1   
      01022  0500 00 0 00012  CNVRT3 CLA     OVRFLG             COUNT DIGITS IGNORED
      01023  0400 00 0 01051         ADD     =1                 BY OVERFLOW   
      01024  0601 00 0 00012         STO     OVRFLG   
      01025  0020 00 0 00144         TRA     TYPE               CHECK NEXT CHARACTER
      01026  0500 00 0 00017  SIGN   CLA     VALUE              SET SIGN
      01027 -0760 00 0 00142         SLT     2                  LIGHT ON FOR +
      01030  0760 00 0 00002         CHS                        REVERSE SIGN  
      01031  0760 00 0 00142         SLN     2                  RESET SIGN FLAG     
      01032  0020 00 4 00001         TRA     1,4
1            FAP                                                                                 PAGE 20    
                                      .RDATA -- SIMPLIFIED INPUT ROUTINE            
                  
                                     EJECT
                              ************************************************************************
                              *                                                                      *
                              *                         BAD CARD PRINTOUT                            *
                              *                                                                      *
                              ************************************************************************
                  
      01033  0634 00 4 01044  CRDOUT SXA     BDCIR4,4 
      01034  0774 00 4 00003         AXT     3,4
      01035 -0500 00 4 01051         CAL     BADCRD+3,4         PRECEDE CARD WITH COMMENT 
      01036  0602 00 4 77643         SLW     CARD,4   
      01037  2 00001 4 01035         TIX     *-2,4,1  
      01040  0074 00 4 00000         TSX     WRFLX,4  
      01041  0 00016 0 77640         PZE     CARD-3,,14     
      01042  0074 00 4 00000         TSX     WRFLX,4  
      01043  0 00003 0 77656         PZE     CARD+11,,3     
      01044  0774 00 4 00000  BDCIR4 AXT     **,4     
      01045  0020 00 4 00001         TRA     1,4                EXIT    
      01046  545454545454     BADCRD BCI     3,****** BAD CARD,   
      01047  602221246023     
      01050  215124736060     
                                     END  
                  
        LITERALS  
      01051  000000000001     
      01052  000000000002     
      01053  000000000012     
      01054  000000000053     
      01055  000000000233     
      01056  000000006000     
      01057  000000077777     
      01060  233000000000     
      01061  252000000000     
      01062  606060606060     
1            FAP                                                                                 PAGE 1     
                        POST PROCESSOR ASSEMBLY DATA  
                  
       77642 IS THE LAST LOCATION NOT USED BY THIS PROGRAM  
       1063 IS THE FIRST LOCATION NOT USED BY THIS PROGRAM  
                  
0REFERENCES TO DEFINED SYMBOLS      
        164     OP   176,  177,  217,  236,  237,  257
         15     PT   301,  317,  321,  451
        725     T1   723
        732    BCD    50
         67    ERR   364,  415,  630,  714
         13    EXP   300,  435,  450
        146    IR1    25
        147    IR2    26
        150    IR4    27
        724    LOC   703,  726,  730
        723    ST1   710
        127    SWH   124,  127
         50    TXL    23
        736   BCD1   771
        741   BCD2   747,  764
        760   BCD3   742,  743,  744,  750,  751
        765   BCD4   757
         75   BDCH    53,   61,   63,   66
        401   BOOL   324
      77643   CARD    10,  123,  126,  132, 1036, 1041, 1043
        133   CHAR   137
         14   DIM1   645,  674
         16   DIM2   566,  615,  663,  667,  675
        430   ECON   323
          6   .IR4    10,   30
      77661   LINE    10,   51,  135,  156,  274,  332,  341,  574,  762,  767, 1005, 1014
        104   MES1    70,  115
        115   MES2    72,  121
        410   MODE   377,  466,  502,  657,  733
        365   OVER   363
         11   PTSW   273,  276,  311,  313,  315,  326,  403,  500
        121   READ    40,  121,  746
        142   RIR4   121
         41   SCAN    46,  512,  705,  772
       1026   SIGN   376,  401,  430,  434,  477,  614,  644,  765
        572   SYM1   577,  600
        607   SYM2   646
        620   SYM3    32,  623,  647
        642   SYM4   612
        647   SYM5   622
        671   SYM6   662
        700   SYM7   656,  671,  673,  676,  702
        703   SYM8   664,  670
        144   TYPE    43,  314,  343,  576,  741,  777, 1017, 1025
        161  ASTER   216
       1016  CONV1  1006, 1007
        315  DIGIT   305
        715  DIMER   713
       1002  EXPC1   773
        513  FPCON   437,  443,  445
1            FAP                                                                                 PAGE 2     
                        POST PROCESSOR ASSEMBLY DATA  
                  
         11  LMES1    70,  115
          4  LMES2    72,  121
        165  MINUS   232
        631  MSVAR   624,  627
        273  POINT    47
          2  RDFLX   122
        357  SHIFT   355
        706  STORE   510,  766
        152  TYPE1    21,  145,  171
        156  TYPE2   152
         17  VALUE   330,  335,  342,  346,  354,  407,  567,  572,  575,  601,  737,  753,  756,  760,  763,  774, 1003
                    1010, 1012, 1016, 1026
          0  WRFLX    65,   67,   71,  125,  362,  413,  626,  712, 1040, 1042
       1046 BADCRD  1035
         20 BCDFLG    35,   42,  161,  165,  170,  211,  732
       1044 BDCIR4  1033
        272 CHARAC   160
       1010 CNVRT1  1000, 1021
       1020 CNVRT2   316,  322
       1022 CNVRT3  1015
        211 CONERR   167,  256
       1005 CONVRT   304
       1033 CRDOUT    64,  361,  412,  625,  711
        333 DIGIT1   344
         10 DIMFLG    36,  652,  665,  707
        477 ENDNUM   307
        773 EXPCON   347,  432,  607
        437 FPOINT   501,  504
        170 IGNORE   212,  252
         51 ILCHAR   173,  174,  175,  200,  213,  214,  215,  220,  233,  234,  235,  240,  253,  254,  255,  260,  310
                     312,  325,  334,  350,  433,  565,  605,  606,  613, 1001
          5 . 3311   677
         23 .RDATA     0,   22
         21 .RPDTA     0
        323 LETTER   306
        616 LNSYTL    34,  604
        361 LRGNUM   337,  352,  454,  460,  464,  474,  506
        416 MODER1   414
        412 MODERR   327,  402,  404,  406,  470,  503,  507,  734,  735
        375 NOSHFT   360
        276 NUMBER    44
         40 NXTCRD    74,  153
        331 OCTIR1   303
         12 OVRFLG   277,  452,  505, 1020, 1022, 1024
        562 PWRTEN   456,  463
          1 SETBCD    73
        131 SPLATR   140
        507 STORE1   400,  411,  467,  476
        711 SUBERR   611,  643,  666,  672
        124 SWITCH    24
        563 SYMBOL    45
          4 (EFTM)   511
          3 (LFTM)   302
1            FAP                                                                                 PAGE 3     
                        POST PROCESSOR ASSEMBLY DATA  
                  
0 NO ERROR IN ABOVE ASSEMBLY. 




  RDFB   BCD 05/29/67 0007.4     738         00000    
1            FAP                                                                                 PAGE 1     
                  
                              *      TSSENTRIES * FOREGROUND LIB * L.P. - JULY 63 * 
                                             SUBROUTINIZED ENTRIES TO TSS ROUTINES  
                       00003         ENTRY   RDFLX    
                                     EXTERN  RDFLXA   
                  
        TRANSFER VECTOR 
      00000  512426436721     RDFLXA
                  
            LINKAGE DIRECTOR  
      00001  000000000000     
      00002  512426436760     
                  
      00003  0634 00 4 00034  RDFLX  SXA     IR4,4    
      00004  0634 00 2 00051         SXA     IR2,2    
      00005  0074 00 4 00000         TSX     RDFLXA,4 
      00006  0 00016 0 00054                 BUF,,14  
                                             RDFLX RETURNS 14 WORDS WITH BREAK CHARACTER. AC CONTAINS 
                                             N, WHERE BREAK CHARACTER IS NTH CHARACTER    
                                             REMAINING CHARACTERS ARE BLANKS  
                  
      00007  0600 00 0 00053         STZ     OVF
      00010  0767 00 0 00001         ALS     1  
      00011  0625 00 0 00053         STT     OVF
      00012 -0320 00 0 00074         ANA     =O77777  
      00013  0771 00 0 00001         ARS     1  
      00014  0520 00 0 00053         ZET     OVF
      00015  0020 00 0 00034         TRA     IR4
      00016  0402 00 0 00072         SUB     =1 
      00017  0131 00 0 00000         XCA  
 T    00020 -0754 00 0 00000         PXD  
      00021  0221 00 0 00073         DVP     =6 
      00022  0131 00 0 00000         XCA  
      00023  0737 00 2 00000         PAC     ,2 
      00024  0200 00 0 00073         MPY     =6 
      00025  0131 00 0 00000         XCA  
      00026  0734 00 4 00000         PAX     ,4 
      00027 -0500 00 2 00054         CAL     BUF,2    
      00030  0771 00 4 00044         ARS     36,4     
      00031  0560 00 0 00075         LDQ     =H 
      00032 -0763 00 4 00044         LGL     36,4     
      00033  0602 00 2 00054         SLW     BUF,2    
      00034  0774 00 4 00000  IR4    AXT     **,4     
      00035  0500 00 4 00001         CLA     1,4
      00036  0771 00 0 00022         ARS     18 
      00037  0400 00 4 00001         ADD     1,4
      00040 -0734 00 2 00000         PDX     ,2 
      00041 -0734 00 4 00000         PDX     ,4 
      00042  0621 00 0 00046         STA     MOVE+1   
      00043  1 00054 4 00044         TXI     *+1,4,BUF
      00044  0634 00 4 00045         SXA     MOVE,4   
      00045 -0500 00 2 00000  MOVE   CAL     **,2     
      00046  0602 00 2 00000         SLW     **,2     
      00047  2 00001 2 00045         TIX     MOVE,2,1 
      00050  0534 00 4 00034         LXA     IR4,4    
      00051  0774 00 2 00000  IR2    AXT     **,2     
      00052  0020 00 4 00002         TRA     2,4
1            FAP                                                                                 PAGE 2     
                  
      00053  0 00000 0 00000  OVF    PZE                   1 IN TAG IF MORE THAN 14 WORDS 
      00054                   BUF    BSS     14 
                                     END  
                  
        LITERALS  
      00072  000000000001     
      00073  000000000006     
      00074  000000077777     
      00075  606060606060     
1            FAP                                                                                 PAGE 1     
                        POST PROCESSOR ASSEMBLY DATA  
                  
         76 IS THE FIRST LOCATION NOT USED BY THIS PROGRAM  
                  
0REFERENCES TO DEFINED SYMBOLS      
         54    BUF     6,   27,   33,   43
         51    IR2     4
         34    IR4     3,   15,   50
         53    OVF     7,   11,   14
         45   MOVE    42,   44,   47
          3  RDFLX     0
          0 RDFLXA     5
                  
0 NO ERROR IN ABOVE ASSEMBLY. 




  RDFL   BCD 05/29/67 0007.4    1882         00000    
1            FAP                                                                                 PAGE 1     
                  
                              *RDFLXB, RDFLXC   
                              *     READS LINE FROM CONSOLE, AND PUTS 1ST N CHARACTERS INTO BLOCK     
                              *          E.G. FROM BLOCK TO BLOCK((N-1)/6) IN MAD.  
                              *     LAST WORD FILLED OUT WITH BLANKS    
                              *     RETURNS IN AC, A = NUMBER OF CHARACTERS IN LINE.
                              *          RETURNS IN AC A=NUMBER OF CHARACTERS IN LINE.    
                              *     
                              *     RDFLXB -- LINE INCLUDES BREAK CHARACTER   
                              *     RDFLXC -- LINE DOES NOT INCLUDE BREAK CHARACTER 
                              *     
                              *SYMBOLS    
                              *     BLOCK -- ADDRESS OF BLOCK TO READ LINE INTO.  (BSS IN FAP)  
                              *     N     -- NUMBER OF CHARACTERS TO BE READ. 
                              *     A     -- NUMBER OF CHARACTERS ACTUALLY READ.    
                              *          A AND N ARE FULL WORD INTEGERS IN MAD AND FAP, DECREMENT     
                              *               INTEGERS IN FORTRAN.
                              *     
                              *CALLING SEQUENCES
                              *     
                              *     MAD       A = RDFLXB.(BLOCK,N)     OR  A = RDFLXC.(BLOCK,N) 
                              *     FORTRAN   A = RDFLXB(BLOCK,N)      OR  A = RDFLXC(BLOCK,N)  
                              *     FAP        TSX  RDFLXB,4           OR   TSX  RDFLXC,4 
                              *                PZE  BLOCK   
                              *                PZE  (N)     
                              *               (STO  (A))  -- IF YOU WANT TO SAVE A  
                              *     
                              * COMPUTATION CENTER              MOLLY WAGNER  
                              * AUGUST 1964     
                              *     
                  
  BINARY CARD NO. RDFLXB00    
                       00004         ENTRY   RDFLXB   
                       00005         ENTRY   RDFLXC   
                              *     
                  
        TRANSFER VECTOR 
                  
  BINARY CARD NO. RDFLXB01    
      00000  274521446060     GNAM  
      00001  512426436721     RDFLXA
                  
            LINKAGE DIRECTOR  
      00002  000000000000     
      00003  512426436722     
                  
      00004 -0625 00 0 00141  RDFLXB STL     BCHAR    
      00005  0634 00 1 00111  RDFLXC SXA     RFXR1,1  
      00006  0634 00 2 00112         SXA     RFXR2,2  
      00007 -0634 00 4 00142         SXD     XR4,4    
      00010  0604 00 0 00143         STI     INDS     
      00011  0500 00 4 00001         CLA     1,4
      00012  0737 00 1 00000         PAC     0,1
      00013  0500 60 4 00002         CLA*    2,4
      00014  0601 00 0 00145         STO     TEMP     
      00015  0074 00 4 00000         TSX     $GNAM,4       GET TYPE OF CALLING SEQUENCE   
      00016  0 00000 0 00142         PZE     XR4
1            FAP                                                                                 PAGE 2     
                  
      00017  0734 00 4 00000         PAX     0,4
      00020  1 77776 4 00021         TXI     *+1,4,-2      TEST FOR FORTRAN   
      00021  0634 00 4 00140         SXA     GNAME,4  
      00022  0522 00 4 00130         XEC     XEC1+1,4 
      00023  0500 00 4 00136         CLA     DEC1+1,4 
                  
  BINARY CARD NO. RDFLXB02    
      00024  0622 00 0 00062         STD     DECR     
      00025  0600 00 0 00144         STZ     K  
      00026  0074 00 4 00001  READ   TSX     $RDFLXA,4     READ NEXT 14 WORDS 
      00027  0 00000 0 00145         PZE     BUFF     
      00030  0734 00 4 00000         PAX     0,4
      00031  0044 00 0 00000         PAI  
      00032 -0320 00 0 00117         ANA     MASK1    
      00033  0400 00 0 00144         ADD     K  
      00034  0601 00 0 00144         STO     K  
      00035 -3 00000 2 00100         TXL     NSW,2,0       HAVE N CHARACTERS BEEN TRANSMITTED   
      00036  0056 00  040000         RNT     NOBRK    
      00037  0520 00 0 00141         ZET     BCHAR    
      00040  0020 00 0 00056         TRA     RFXA1    
      00041 -2 00001 4 00064         TNX     KSW,4,1  
      00042  0754 00 4 00000         PXA     0,4           REMOVE BREAK CHARACTER FOR RDFLXC    
      00043  0225 04 0 00116         VDP     Q6B31,,4 
      00044  0131 00 0 00000         XCA  
      00045  0737 00 4 00000         PAC     0,4
      00046  0204 10 0 00116         VLM     Q6B31,,8 
      00047  0621 00 0 00052         STA     SHFT1    
                  
  BINARY CARD NO. RDFLXB03    
      00050  0621 00 0 00054         STA     SHFT2    
      00051  0560 00 4 00145         LDQ     BUFF,4   
      00052 -0763 00 0 00000  SHFT1  LGL     ** 
      00053  0560 00 0 00120         LDQ     BLANKS   
      00054 -0765 00 0 00000  SHFT2  LGR     ** 
      00055 -0600 00 4 00145         STQ     BUFF,4   
      00056  0774 00 4 00016  RFXA1  AXT     14,4     
      00057 -0500 00 4 00163  KLOOP  CAL     BUFF+14,4     TRANSMIT WORDS     
      00060 -2 00006 2 00070         TNX     NLIM,2,6 
      00061  0602 00 1 00000  LOC    SLW     0,1
      00062  1 00000 1 00063  DECR   TXI     *+1,1,**      1 FOR FORTRAN, MAD,  -1 FOR FAP
      00063  2 00001 4 00057         TIX     KLOOP,4,1
      00064  0054 00  040000  KSW    RFT     NOBRK    
      00065  0020 00 0 00026         TRA     READ          LINE NOT FINISHED YET    
      00066 -0500 00 0 00120         CAL BLANKS            NO MORE CHARACTERS TO READ, TRANSMIT BLANKS
      00067  2 00006 2 00061         TIX     LOC,2,6  
      00070 -0320 00 2 00127  NLIM   ANA     MASKS+6,2     TRANSMIT ONLY N CHARACTERS     
      00071  0604 00 0 00145         STI     TEMP     
      00072  0441 00 0 00120         LDI     BLANKS   
      00073  0445 00 2 00127         RIS     MASKS+6,2
                  
  BINARY CARD NO. RDFLXB04    
      00074  0043 00 0 00000         OAI  
      00075  0604 00 1 00000         STI     0,1
      00076  0441 00 0 00145         LDI     TEMP     
      00077  0774 00 2 00000         AXT     0,2
      00100  0054 00  040000  NSW    RFT     NOBRK    
1            FAP                                                                                 PAGE 3     
                  
      00101  0020 00 0 00026         TRA     READ     
      00102  0500 00 0 00144  OUT    CLA     K             RETURN TO CALLER   
      00103 -0520 00 0 00141         NZT     BCHAR    
      00104  0402 00 0 00115         SUB     Q1 
      00105 -0534 00 4 00142         LXD     XR4,4    
      00106  0441 00 0 00143         LDI     INDS     
      00107 -0520 00 0 00140         NZT     GNAME    
      00110  0767 00 0 00022         ALS     18 
      00111  0774 00 1 00000  RFXR1  AXT     **,1     
      00112  0774 00 2 00000  RFXR2  AXT     **,2     
      00113  0600 00 0 00141         STZ     BCHAR    
      00114  0020 00 4 00003         TRA     3,4
                              *     
      00115  0 00000 0 00001  Q1     PZE     1  
      00116 +000000000140     Q6B31  DEC     6B31     
      00117 +000000000177     MASK1  OCT     177
                  
  BINARY CARD NO. RDFLXB05    
      00120  606060606060     BLANKS BCI     1, 
      00121 -377777777777     MASKS  OCT     777777777777   
      00122 -377777777700            OCT     777777777700   
      00123 -377777770000            OCT     777777770000   
      00124 -377777000000            OCT     777777000000   
      00125 -377700000000            OCT     777700000000   
      00126 -370000000000            OCT     770000000000   
      00127  0534 00 2 00145  XEC1   LXA     TEMP,2   
      00130 -0534 00 2 00145         LXD     TEMP,2   
      00131  0534 00 2 00145         LXA     TEMP,2   
      00132  0020 00 0 00133         TRA     *+1           ERROR -- NO ARGUMENTS.  RETURN 1,4.  
      00133 -0534 00 4 00142         LXD     XR4,4    
      00134  1 00002 4 00111         TXI     RFXR1,4,2
      00135  1 00001 1 00063  DEC1   TXI     DECR+1,1,1     
      00136  1 00001 1 00063         TXI     DECR+1,1,1     
      00137  1 77777 1 00063         TXI     DECR+1,1,-1    
      00140  0 00000 0 00000  GNAME  PZE     0  
      00141                   BCHAR  BSS     1  
      00142                   XR4    BSS     1  
      00143                   INDS   BSS     1  
      00144                   K      BSS     1  
      00145                   BUFF   BSS     14 
                       00145  TEMP   EQU     BUFF     
                      040000  NOBRK  BOOL    040000   
                                     END  
1            FAP                                                                                 PAGE 1     
                        POST PROCESSOR ASSEMBLY DATA  
                  
        163 IS THE FIRST LOCATION NOT USED BY THIS PROGRAM  
                  
0REFERENCES TO DEFINED SYMBOLS      
        144      K    25,   33,   34,  102
        115     Q1   104
         64    KSW    41
         61    LOC    67
        100    NSW    35
        102    OUT      
        142    XR4     7,   16,  105,  133
        145   BUFF    27,   51,   55,   57,  163
        135   DEC1    23
         62   DECR    24,  135,  136,  137
          0   GNAM    15
        143   INDS    10,  106
         70   NLIM    60
         26   READ    65,  101
        145   TEMP    14,   71,   76,  127,  130,  131,  163
        127   XEC1    22
        141  BCHAR     4,   37,  103,  113
        140  GNAME    21,  107
         57  KLOOP    63
        117  MASK1    32
        121  MASKS    70,   73
      40000  NOBRK    36,   64,  100,  163
        116  Q6B31    43,   46
         56  RFXA1    40
        111  RFXR1     5,  134
        112  RFXR2     6
         52  SHFT1    47
         54  SHFT2    50
        120 BLANKS    53,   66,   72
          1 RDFLXA    26
          4 RDFLXB     0
          5 RDFLXC     0
                  
0 NO ERROR IN ABOVE ASSEMBLY. 




  RDMS   BCD 06/25/69 2048.4     256         00000    
1            RDMESS/WRMESS/ALLOW/FORBID - INTERCONSOLE SUPERVISOR ENTRIES.                       PAGE 1     
                  
                  
                  
                       00000         ENTRY   WRMESS   
                       00002         ENTRY   RDMESS   
                       00004         ENTRY   ALLOW    
                       00006         ENTRY   FORBID   
                  
                  
      00000  0101 00 0 00001  WRMESS TIA     *+1
      00001  665144256262            BCI     1,WRMESS 
      00002  0101 00 0 00003  RDMESS TIA     *+1
      00003  512444256262            BCI     1,RDMESS 
      00004  0101 00 0 00005  ALLOW  TIA     *+1
      00005  214343466660            BCI     1,ALLOW  
      00006  0101 00 0 00007  FORBID TIA     *+1
      00007  264651223124            BCI     1,FORBID 
                  
                  
                                     END  
1            RDMESS/WRMESS/ALLOW/FORBID - INTERCONSOLE SUPERVISOR ENTRIES.                       PAGE 1     
                        POST PROCESSOR ASSEMBLY DATA  
                  
         10 IS THE FIRST LOCATION NOT USED BY THIS PROGRAM  
                  
0REFERENCES TO DEFINED SYMBOLS      
          4  ALLOW     0
          6 FORBID     0
          2 RDMESS     0
          0 WRMESS     0
                  
0 NO ERROR IN ABOVE ASSEMBLY. 




  RDTM   BCD 06/25/69 2048.4     135         00000    
1     FAP ASSEMBLY LISTING  ...  ...  ...        FILE RDYTIM _____FAP___         06/21/69 1700.5 PAGE 1     
                  
                       00000         ENTRY   RDYTIM   
      00000  0101 00 0 00001  RDYTIM TIA     =HRDYTIM 
                                     END  
                  
        LITERALS  
      00001  512470633144     
1     FAP ASSEMBLY LISTING  ...  ...  ...        FILE RDYTIM _____FAP___         06/21/69 1700.5 PAGE 1     
                        POST PROCESSOR ASSEMBLY DATA  
                  
          2 IS THE FIRST LOCATION NOT USED BY THIS PROGRAM  
                  
0REFERENCES TO DEFINED SYMBOLS      
          0 RDYTIM     0
                  
0 NO ERROR IN ABOVE ASSEMBLY. 




  RDWT   BCD 05/29/67 0007.4     166         00000    
1                                                                                                PAGE 1     
                  
                       00000         ENTRY   RDFILE   
                       00001         ENTRY   RDWAIT   
      00000  0101 00 0 00002  RDFILE TIA     =HRDFILE 
      00001  0101 00 0 00003  RDWAIT TIA     =HRDWAIT 
                                     END  
                  
        LITERALS  
      00002  512426314325     
      00003  512466213163     
1                                                                                                PAGE 1     
                        POST PROCESSOR ASSEMBLY DATA  
                  
          4 IS THE FIRST LOCATION NOT USED BY THIS PROGRAM  
                  
0REFERENCES TO DEFINED SYMBOLS      
          0 RDFILE     0
          1 RDWAIT     0
                  
0 NO ERROR IN ABOVE ASSEMBLY. 




  RECO   BCD 05/29/67 0007.4     207         00000    
1            FAP                                                                                 PAGE 1     
                  
                              *RECP     FOR TIME SHARING MOD XI FOREGROUND LIBRARY    JDH    DEC 62   
                       00003         ENTRY   RECOUP   
                                             CALLS EXIT FOREVER.  
                  
        TRANSFER VECTOR 
      00000  256731636060     EXIT  
                  
            LINKAGE DIRECTOR  
      00001  000000000000     
      00002  512523466447     
                  
      00003  0074 00 4 00000  RECOUP TSX     $EXIT,4  
      00004  0020 00 0 00003         TRA     *-1
                                     END  
1            FAP                                                                                 PAGE 1     
                        POST PROCESSOR ASSEMBLY DATA  
                  
          5 IS THE FIRST LOCATION NOT USED BY THIS PROGRAM  
                  
0REFERENCES TO DEFINED SYMBOLS      
          0   EXIT     3
          3 RECOUP     0
                  
0 NO ERROR IN ABOVE ASSEMBLY. 




  RENM   BCD 05/29/67 0007.4    1068         00000    
1            FAP                                                                                 PAGE 1     
                  
                              * FOR TIME SHARING MODULAR VERSION.     LP   FEB 64   
                                             EXECUTE RENAME.(OLDFIL,NEWFIL)   
                                             X=RENAME(...),   X=0 IF SUCCESS, X=ERROR CODE IF FAILURE 
                                             NAMES SET BY VECTOR VALUES, OR BY 'SETNAM'.  
                                             VECTOR VALUES NAMES=$  ALFA  BETA$     
                                             CALL SETNAM (NAMES, 12H  ALFA  BETA)   
                  
                  
                       00006         ENTRY   RENAME   
                  
                  
        TRANSFER VECTOR 
                  
  BINARY CARD NO. RENAM001    
      00000  274521446060     GNAM  
      00001  266263216325     FSTATE
      00002  233026314325     CHFILE
      00003  242543256325     DELETE
                  
            LINKAGE DIRECTOR  
      00004  000000000000     
      00005  512545214425     
                  
                       00004  X4     SYN     *-2
                       00006  RENAME SYN     *  
      00006 -0634 00 4 00004         SXD     X4,4     
      00007 -0625 00 0 00077         STL     REC
      00010  0074 00 4 00000         TSX     $GNAM,4  
      00011  0 00000 0 00004         PZE     X4 
      00012  0 00000 0 00073         PZE     FILNAM   
      00013 -0534 00 4 00004         LXD     X4,4     
      00014  1 77777 4 00015         TXI     *+1,4,-1 
      00015 -0634 00 4 00004         SXD     X4,4     
      00016  0074 00 4 00000         TSX     $GNAM,4  
      00017  0 00000 0 00004         PZE     X4 
      00020  0 00000 0 00070         PZE     NEW
      00021  0500 00 0 00073         CLA     FILNAM   
      00022  0402 00 0 00070         SUB     NEW
      00023 -0100 00 0 00027         TNZ     C  
                  
  BINARY CARD NO. RENAM002    
      00024  0500 00 0 00074         CLA     FILNAM+1 
      00025  0402 00 0 00071         SUB     NEW+1    
      00026  0100 00 0 00051         TZE     D             RETURN IF SAME NAMES     
      00027  0074 00 4 00001  C      TSX     $FSTATE,4
 TD   00030  3 00000 0 00073         TXH     FILNAM   
 TD   00031  3 00000 0 00074         TXH     FILNAM+1 
      00032  3 00002 0 00075         TXH     E,,2     
 TD   00033  3 00000 0 00066         TXH     B  
 TD   00034  3 00000 0 00075         TXH     E  
      00035  0500 00 0 00076         CLA     E+1
      00036  0120 00 0 00041         TPL     EF            TRA IF NOT LINKED  
      00037  0500 00 0 00101         CLA     =O40          ERROR CODE 32(DEC) FOR LINKED FILE   
      00040  0020 00 0 00052         TRA     A  
      00041  0074 00 4 00002  EF     TSX     $CHFILE,4
 TD   00042  3 00000 0 00073         TXH     FILNAM   
1            FAP                                                                                 PAGE 2     
                  
 TD   00043  3 00000 0 00074         TXH     FILNAM+1 
 TD   00044  3 00000 0 00102         TXH     =-0
 TD   00045  3 00000 0 00070         TXH     NEW
 TD   00046  3 00000 0 00071         TXH     NEW+1    
 TD   00047  3 00000 0 00054         TXH     CA 
                  
  BINARY CARD NO. RENAM003    
 TD   00050  3 00000 0 00075         TXH     E  
      00051 -0754 00 0 00000  D      ZAC  
      00052 -0534 00 4 00004  A      LXD     X4,4     
      00053  0020 00 4 00002         TRA     2,4           ORIGINAL X4-1
      00054 -0520 00 0 00077  CA     NZT     REC
      00055  0020 00 0 00066         TRA     B  
      00056  0500 00 0 00075         CLA     E  
      00057  0402 00 0 00100         SUB     =O12     
      00060 -0100 00 0 00066         TNZ     B  
      00061  0600 00 0 00077         STZ     REC
      00062  0074 00 4 00003         TSX     $DELETE,4
      00063  0 00000 0 00070         PZE     NEW
      00064 -0100 00 0 00052         TNZ     A  
      00065  0020 00 0 00041         TRA     EF 
                  
      00066  0500 00 0 00075  B      CLA     E  
      00067  0020 00 0 00052         TRA     A  
                  
      00070                   NEW    BSS     2  
                  
  BINARY CARD NO. RENAM004    
      00072  0 00000 0 00000  ANS    PZE  
      00073  606060606060     FILNAM BCI     1, 
      00074  606060606060            BCI     1, 
      00075                   E      BSS     2             WORKING SPACE FOR STATE OF FILE
                  
  BINARY CARD NO. RENAM005    
      00077  263151626360     REC    BCI     1,FIRST  
                                     END  
                  
        LITERALS  
      00100  000000000012     
      00101  000000000040     
      00102  400000000000     
1            FAP                                                                                 PAGE 1     
                        POST PROCESSOR ASSEMBLY DATA  
                  
        103 IS THE FIRST LOCATION NOT USED BY THIS PROGRAM  
                  
0REFERENCES TO DEFINED SYMBOLS      
         52      A    40,   64,   67
         66      B    33,   55,   60
         27      C    23
         51      D    26
         75      E    32,   34,   35,   50,   56,   66
         54     CA    47
         41     EF    36,   65
          4     X4     6,   11,   13,   15,   17,   52
         72    ANS      
         70    NEW    20,   22,   25,   45,   46,   63
         77    REC     7,   54,   61
          0   GNAM    10,   16
          2 CHFILE    41
          3 DELETE    62
         73 FILNAM    12,   21,   24,   30,   31,   42,   43
          1 FSTATE    27
          6 RENAME     0,    6
                  
0 NO ERROR IN ABOVE ASSEMBLY. 




  RJUS   BCD 06/25/69 2048.5     446         00000    
1            FAP                                                                                 PAGE 1     
                  
                              *      RJUST   RIGHT JUSTIFIES A BCD WORD 
                              *      INSERTS LEADING BLANKS. KEEPS LEADING ZEROS    
                  
                  
                  
  BINARY CARD NO. RJUST000    
                       00002         ENTRY   RJUST    
                  
                  
            LINKAGE DIRECTOR  
                  
  BINARY CARD NO. RJUST001    
      00000  000000000000     
      00001  514164626360     
                  
                       00002  RJUST  SYN     *  
                       00000  X4     SYN     *-2
      00002 -0634 00 4 00000         SXD     X4,4     
      00003 -0500 60 4 00001         CAL*    1,4
      00004  0604 00 0 00023         STI     A  
      00005  0774 00 4 00006         AXT     6,4
      00006  0044 00 0 00000  B      PAI  
      00007  0051 00  000060         IIR     60 
      00010  0054 00  000077         RFT     77            SKIP WHEN BLANK ON RIGHT 
      00011  0020 00 0 00016         TRA     C  
      00012  0771 00 0 00006         ARS     6  
      00013 -0501 00 0 00024         ORA     =H 00000      INSERT LEADING BLANK     
      00014  2 00001 4 00006         TIX     B,4,1    
      00015 -0500 00 0 00025         CAL     =H     *      ALL BLANK. SET *   
      00016 -0130 00 0 00000  C      XCL  
      00017  0131 00 0 00000         XCA  
      00020  0441 00 0 00023         LDI     A  
      00021 -0534 00 4 00000         LXD     X4,4     
      00022  0020 00 4 00002         TRA     2,4
      00023  0 00000 0 00000  A      PZE  
                                     END  
                  
        LITERALS  
                  
  BINARY CARD NO. RJUST002    
      00024  600000000000     
      00025  606060606054     
1            FAP                                                                                 PAGE 1     
                        POST PROCESSOR ASSEMBLY DATA  
                  
         26 IS THE FIRST LOCATION NOT USED BY THIS PROGRAM  
                  
0REFERENCES TO DEFINED SYMBOLS      
         23      A     4,   20
          6      B    14
         16      C    11
          0     X4     2,   21
          2  RJUST     0,    2
                  
0 NO ERROR IN ABOVE ASSEMBLY. 




  RSRB   BCD 06/25/69 2048.5     135         00000    
1     FAP ASSEMBLY LISTING  ...  ...  ...        FILE RSSRB_ _____FAP___         06/21/69 1700.9 PAGE 1     
                  
                       00000         ENTRY   RSSRB    
      00000  0101 00 0 00001  RSSRB  TIA     =HRSSRB  
                                     END  
                  
        LITERALS  
      00001  516262512260     
1     FAP ASSEMBLY LISTING  ...  ...  ...        FILE RSSRB_ _____FAP___         06/21/69 1700.9 PAGE 1     
                        POST PROCESSOR ASSEMBLY DATA  
                  
          2 IS THE FIRST LOCATION NOT USED BY THIS PROGRAM  
                  
0REFERENCES TO DEFINED SYMBOLS      
          0  RSSRB     0
                  
0 NO ERROR IN ABOVE ASSEMBLY. 




  RSTF   BCD 05/29/67 0008.3     166         00000    
1                                                                                                PAGE 1     
                  
                       00000         ENTRY   RESETF   
                       00001         ENTRY   UNLINK   
      00000  0101 00 0 00002  RESETF TIA     =HRESETF 
      00001  0101 00 0 00003  UNLINK TIA     =HUNLINK 
                                     END  
                  
        LITERALS  
      00002  512562256326     
      00003  644543314542     
1                                                                                                PAGE 1     
                        POST PROCESSOR ASSEMBLY DATA  
                  
          4 IS THE FIRST LOCATION NOT USED BY THIS PROGRAM  
                  
0REFERENCES TO DEFINED SYMBOLS      
          0 RESETF     0
          1 UNLINK     0
                  
0 NO ERROR IN ABOVE ASSEMBLY. 




  SAVE   BCD 05/29/67 0008.3    1753         00000    
1            FAP                                                                                 PAGE 1     
                  
                              *.SET,.SAVE,.SAVRN,.RSTOR,.RSTRN LIST MANIPULATION ROUTINES 
                              *     
                              *              MAY 4, 1964    
                              *     
                  
  BINARY CARD NO. RSTO0000    
                       00114         ENTRY   .SET     
                       00002         ENTRY   .SAVE    
                       00002         ENTRY   .SAVRN   
                       00012         ENTRY   .RSTOR   
                       00012         ENTRY   .RSTRN   
                              *     
                  
        TRANSFER VECTOR 
                  
  BINARY CARD NO. RSTO0001    
      00000  665126436760     WRFLX 
      00001  256731636060     EXIT  
                  
                       00002   .SAVE SYN     *  
                       00002  .SAVRN SYN     *  
      00002  0500 00 0 00045         CLA     TXL
      00003  0630 00 0 00053         STP     TXH1          SET SWITCHES 
      00004  0630 00 0 00101         STP     TXH2     
      00005 -0500 00 0 00002         CAL     2             SAVE AND RESET     
      00006  0560 00 0 00033         LDQ     RETRN         TRAP LOCATION
      00007  0602 00 0 00032         SLW     SAVE2    
      00010 -0600 00 0 00002         STQ     2  
      00011  0020 00 4 00001         TRA     1,4
                              *     
                       00012  .RSTOR SYN     *  
                       00012  .RSTRN SYN     *  
      00012 -0500 00 0 00045         CAL     TXL
      00013  0020 00 0 00003         TRA     .SAVE+1  
                              *     
                       00014   CHK1  SYN     *  
      00014 -3 00000 1 00127         TXL     LOWCK,1,0
      00015  0621 00 0 00016         STA     *+1           SET PICK-UP ADDRESS
      00016 -0500 60 0 00000         CAL*    **            SAVE ONE WORD
      00017  0602 00 1 00000   SET2  SLW     **,1     
                              *     
      00020  0634 00 1 00000   SET3  SXA     **,1          RESET LIST LENGTH  
      00021  0774 00 1 00000   IR    AXT     **,1          RESET IR'S AND     
      00022  0774 00 2 00000         AXT     **,2          RETURN TO LIST     
      00023  0441 00 0 00141         LDI     INDCAT   
                  
  BINARY CARD NO. RSTO0002    
      00024  0535 00 4 00000         LAC     0,4
      00025  0020 00 4 00000         TRA     0,4
                              *     
      00026  0560 00 1 00000   SET4  LDQ     **,1          RESTORE ONE WORD   
      00027  0621 00 0 00030         STA     *+1
      00030 -0600 60 0 00000         STQ*    ** 
      00031  1 77777 1 00020         TXI     SET3,1,-1
                              *     
      00032  0 00000 0 00000   SAVE2 PZE  
1            FAP                                                                                 PAGE 2     
                  
                              *     
      00033  0020 00 0 00034   RETRN TRA     *+1
      00034  0634 00 1 00021         SXA     IR,1     
      00035  0634 00 2 00022         SXA     IR+1,2   
      00036  0604 00 0 00141         STI     INDCAT   
      00037  0534 00 1 00000   SET1  LXA     **,1          GET LIST LENGTH    
      00040 -0500 00 0 00000         CAL     0             GET CALLING SEQUENCE WORD
      00041  0402 00 0 00142         SUB     =1 
      00042  0621 00 0 00043         STA     *+1
      00043  0441 00 0 00000   PARAM LDI     ** 
      00044  0444 00 0 00143         OFT     =O77777777777  
 TD   00045 -3 00000 0 00051   TXL   TXL     A  
      00046 -0500 00 0 00032         CAL     SAVE2    
      00047  0602 00 0 00002         SLW     2  
                  
  BINARY CARD NO. RSTO0003    
      00050  0020 00 0 00021         TRA     IR 
      00051 -0054 00  077777   A     LFT     77777    
      00052  0020 00 0 00055         TRA     *+3
      00053  3 00000 0 00026   TXH1  TXH     SET4,,0       TXHOR TXL    
      00054  1 00001 1 00014         TXI     CHK1,1,1 
      00055 -0046 00 0 00000         PIA                   BLOCK PARAMETER    
      00056  0634 00 4 00077         SXA     IR1,4    
      00057  0734 00 2 00000         PAX     0,2
      00060  0622 00 0 00061         STD     *+1
      00061  2 00000 2 00071         TIX     OTHR,2,**
      00062 -0634 00 2 00064         SXD     *+2,2         DEC .G. ADD  
      00063 -0734 00 2 00000         PDX     0,2
      00064  2 00000 2 00067         TIX     *+3,2,** 
      00065 -0500 00 0 00043         CAL     PARAM    
      00066  0020 00 0 00053         TRA     TXH1          DEC .E. ADD  
      00067  0774 00 4 00001         AXT     1,4           DEC .G. ADD  
      00070  0020 00 0 00072         TRA     GO 
                              *     
      00071 -0774 00 4 00001   OTHR  AXC     1,4           DEC .L. ADD  
      00072 -0634 00 4 00075   GO    SXD     LOOP,4        SET ADDRESS CHANGE 
      00073  0734 00 4 00000         PAX     0,4
                  
  BINARY CARD NO. RSTO0004    
      00074  1 00001 2 00101         TXI     TXH2,2,1 
                              *     
      00075  1 00000 4 00076   LOOP  TXI     *+1,4,**      CHANGE ADDRESS BY ONE    
      00076  2 00001 2 00101         TIX     TXH2,2,1      CHECK FOR END OF BLOCK   
      00077  0774 00 4 00000   IR1   AXT     **,4     
      00100  0020 00 0 00020         TRA     SET3     
                              *     
      00101  3 00000 0 00103   TXH2  TXH     RST2,,0       TXH OR TXL   
      00102  1 00001 1 00107         TXI     CHK2,1,1 
                              *     
      00103  0634 00 4 00105   RST2  SXA     *+2,4         BLOCK RESTORE
      00104 -0500 00 1 00000   SET5  CAL     **,1     
      00105  0602 00 0 00000         SLW     ** 
      00106  1 77777 1 00075         TXI     LOOP,1,-1
                              *     
                       00107   CHK2  SYN     *  
      00107 -3 00000 1 00127         TXL     LOWCK,1,0
1            FAP                                                                                 PAGE 3     
                  
      00110  0634 00 4 00111         SXA     *+1,4    
      00111 -0500 00 0 00000         CAL     ** 
      00112  0602 00 1 00000   SET6  SLW     **,1     
      00113  0020 00 0 00075         TRA     LOOP     
                              *     
                              *              .SET     
                              *     
                       00114   .SET  SYN     *  
      00114 -0500 00 4 00001         CAL     1,4
      00115  0625 00 0 00116         STT     *+1           IN CASE MAD PUTS SUBSCRIPT IN INDEX  
      00116  0754 00 0 00000         PXA     0,**     
      00117  0402 00 4 00001         SUB     1,4
                  
  BINARY CARD NO. RSTO0005    
      00120  0621 00 0 00037         STA     SET1     
      00121  0621 00 0 00017         STA     SET2     
      00122  0621 00 0 00020         STA     SET3     
      00123  0621 00 0 00026         STA     SET4     
      00124  0621 00 0 00104         STA     SET5     
      00125  0621 00 0 00112         STA     SET6     
                              *     
                              *              DELETE LOW CORE CHECKS     
                              *                        USED AT MICHIGAN 
                              *               RETURN TO USER
      00126  0020 00 4 00002         TRA     2,4
                              *     
      00127  0074 00 4 00000  LOWCK  TSX    $WRFLX,4  
      00130  0 00007 0 00132                 BCI,,7   
      00131  0074 00 4 00001         TSX     $EXIT,4  
      00132  605454545460      BCI   BCI     7, **** ERROR IN .SAVE. LIST ABOVE LIST(0).  
      00133  255151465160     
      00134  314560336221     
      00135  652533604331     
      00136  626360212246     
      00137  652560433162     
      00140  637400343360     
                              *     
                              *     
      00141  0 00000 0 00000  INDCAT
                                     END  
                  
        LITERALS  
      00142  000000000001     
      00143  077777777777     
1            FAP                                                                                 PAGE 1     
                        POST PROCESSOR ASSEMBLY DATA  
                  
        144 IS THE FIRST LOCATION NOT USED BY THIS PROGRAM  
                  
0REFERENCES TO DEFINED SYMBOLS      
         51      A    45
         72     GO    70
         21     IR    34,   35,   50
        132    BCI   130
         77    IR1    56
         45    TXL     2,   12
         14   CHK1    14,   54
        107   CHK2   102,  107
          1   EXIT   131
        114   .SET     0,  114
         75   LOOP    72,  106,  113
         71   OTHR    61
        103   RST2   101
         37   SET1   120
         17   SET2   121
         20   SET3    31,  100,  122
         26   SET4    53,  123
        104   SET5   124
        112   SET6   125
         53   TXH1     3,   66
        101   TXH2     4,   74,   76
          2  .SAVE     0,    2,   13
        127  LOWCK    14,  107
         43  PARAM    65
         33  RETRN     6
         32  SAVE2     7,   46
          0  WRFLX   127
        141 INDCAT    23,   36
         12 .RSTOR     0,   12
         12 .RSTRN     0,   12
          2 .SAVRN     0,    2
                  
0 NO ERROR IN ABOVE ASSEMBLY. 




  SCH0   BCD 05/29/67 0008.3    2914         00000    
1            FAP                                                                                 PAGE 1     
                  
                              * (STH), (SCH), .PUNCH, .TAPWR  FOR FOREGROUND.  MODIFIED FOR MICHIGANIO
                              *               FEBRUARY 1965 SPALL ACLIGHT FIXED AND CLEAN UP    
                                             WRITE-AROUND TO DISK ROUTINES FOR FORTRAN-TYPE I/O 
                                             (STH),(SCH) TO DISK FILES  
                                             STH WRITES VARIABLE LENGTH LINES WITH LINE MARKER. 
                                             FIRST WORD OF RECORD IS 77777700000N, N IS WORD COUNT.   
                                             STH CREATES FILE CALLED .TAPE.     N   
                                             SCH CREATES FILE CALLED .TAPE.     3   
                  
                  
  BINARY CARD NO. SCH00000    
                       00010         ENTRY   (SCH)    
                       00014         ENTRY   (STH)    
                       00014         ENTRY   (STHM)   
                       00051         ENTRY   .PUNCH   
                       00051         ENTRY   .PNCHL   
                       00061         ENTRY   .TAPWR   
                                     EXTERN  .WRITE,.FSTAT  
                  
                  
        TRANSFER VECTOR 
                  
  BINARY CARD NO. SCH00001    
      00000  336651316325     .WRITE
      00001  332662632163     .FSTAT
      00002  743146303460     (IOH) 
      00003  214747254524     APPEND
      00004  216262312745     ASSIGN
      00005  624521476060     SNAP  
                  
            LINKAGE DIRECTOR  
      00006  000000000000     
      00007  746223303460     
                  
      00010  0500 00 0 00270  (SCH)  CLA     CDCNT    
      00011  0601 00 0 00275         STO     COLIND   
      00012  0560 00 0 00300         LDQ     =3 
      00013  0020 00 0 00017         TRA     SAVE4    
                       00014  (STH)  SYN     *  
                       00014  (STHM) SYN     *  
      00014  0560 00 0 00271         LDQ     TPCNT    
      00015 -0600 00 0 00275         STQ     COLIND   
      00016 -0765 00 0 00066         LGR     36+18         TAPE NO IN MQ ADDRESS    
      00017  0634 00 4 00021  SAVE4  SXA     IXR4,4   
      00020  0074 00 4 00223         TSX     CALLDK,4 
      00021  0774 00 4 00000  IXR4   AXT     **,4     
      00022 -0500 00 4 00001         CAL     1,4
      00023  0560 00 0 00267         LDQ     FORT     
                  
  BINARY CARD NO. SCH00002    
      00024  0634 00 4 00041         SXA     JN21,4   
      00025 -0634 00 4 77740         SXD     RTN,4    
      00026  0600 00 0 00000         STZ     0  
      00027  1 77776 4 00030         TXI     *+1,4,-2 
      00030  0636 00 4 00000         SCA     0,4
      00031 -0734 00 4 00000         PDX     0,4           IS DECREMENT ZERO  
1            FAP                                                                                 PAGE 2     
                  
      00032 -3 00000 4 00041         TXL     JN21,4,0      FORTRAN, BACKWARDS 
      00033 -0600 00 0 00272         STQ     TEMP     
      00034 -0130 00 0 00000         XCL  
      00035 -0500 00 0 00265         CAL     UMAP          -1 IN DECR. SET FOR FORWARDS   
      00036  0622 00 0 00272         STD     TEMP     
      00037 -0130 00 0 00000         XCL  
      00040  0560 00 0 00272         LDQ     TEMP     
      00041  0774 00 4 00000   JN21  AXT     **,4     
      00042 -0600 00 0 77737         STQ     FMT
      00043  0621 00 0 77740         STA     RTN
      00044 -0500 00 0 00266         CAL     MAD
      00045  0630 00 0 77740         STP     RTN
      00046 -0500 00 0 00275         CAL     COLIND   
      00047  0602 00 0 77741         SLW     COL
                  
  BINARY CARD NO. SCH00003    
      00050  0020 60 0 00002         TRA*    $(IOH)   
                              *     
                              *     
                       00051  .PUNCH SYN     *  
                       00051  .PNCHL SYN     .PUNCH   
      00051  0560 00 0 00270         LDQ     CDCNT    
      00052 -0600 00 0 00275         STQ     COLIND   
      00053  0634 00 4 00056         SXA     .PU1,4   
      00054  0560 00 0 00300         LDQ     =3 
      00055  0074 00 4 00223         TSX     CALLDK,4 
      00056  0774 00 4 00000   .PU1  AXT     **,4     
      00057  0560 00 0 00104         LDQ     T1 
      00060  0020 00 0 00064         TRA     JOIN1    
                              *     
                       00061  .TAPWR SYN     *  
      00061  0560 00 0 00271         LDQ     TPCNT    
      00062 -0600 00 0 00275         STQ     COLIND   
      00063  0560 00 0 00071         LDQ     .TR
      00064 -0500 00 0 00002   JOIN1 CAL     2  
      00065  0602 00 0 00274         SLW     2SAVE    
      00066 -0600 00 0 00002         STQ     2  
      00067 -0634 00 4 77740         SXD     RTN,4         SAVE CALLER LOC. IN RTN  
      00070  0020 00 4 00001         TRA     1,4
                              *              BACK HERE FOR TAPE NUMBER  
      00071  0020 00 0 00072   .TR   TRA     *+1
      00072 -0500 00 0 00000         CAL     0             TAPE ENTRY   
      00073  0402 00 0 00277         SUB     =1 
                  
  BINARY CARD NO. SCH00004    
      00074  0621 00 0 00075         STA     *+1           GO BACK AND GET THE
      00075  0560 60 0 00000         LDQ*    **            TAPE NUMBER  
      00076  0634 00 4 00100         SXA     *+2,4    
      00077  0074 00 4 00223         TSX     CALLDK,4 
      00100  0774 00 4 00000         AXT     **,4     
      00101  0560 00 0 00104         LDQ     T1 
      00102 -0600 00 0 00002         STQ     2             FORMAT STATEMENT.  
      00103  0020 60 0 00000         TRA*    0  
                              *     
      00104  0020 00 0 00105   T1    TRA     *+1
      00105  0634 00 4 00115         SXA     T4,4     
1            FAP                                                                                 PAGE 3     
                  
      00106  0535 00 4 00000         LAC     0,4           GET FORMAT   
      00107 -0500 00 4 77777         CAL     -1,4          PARAMETER.   
      00110 -0734 00 4 00000         PDX     0,4           IS FORMAT BACKWARD 
      00111  0560 00 0 00266         LDQ     MAD           (D .NE. 0)   
      00112  3 00000 4 00114         TXH     *+2,4,0       OR     
      00113  0560 00 0 00265         LDQ     UMAP          FORWARD (D .E. 0)  
      00114  3 00001 4 00125         TXH     SYT,4,1  
      00115  0774 00 4 00000   T4    AXT     **,4     
      00116 -0600 00 0 00272         STQ     TEMP     
      00117 -0130 00 0 00000         XCL  
                  
  BINARY CARD NO. SCH00005    
      00120 -0500 00 0 00267         CAL     FORT     
      00121  0621 00 0 00272         STA     TEMP     
      00122 -0130 00 0 00000         XCL  
      00123  0560 00 0 00272         LDQ     TEMP     
      00124  0020 00 0 00042         TRA     JN21+1   
                              *     
                              *              TEST FOR SYMBOL TABLE
      00125  0560 00 0 00266   SYT   LDQ     MAD
      00126  0625 00 0 00273         STT     TGTMP    
      00127 -0520 00 0 00273         NZT     TGTMP    
      00130  0560 00 0 00265         LDQ     UMAP     
      00131  0734 00 4 00000         PAX     0,4
      00132  0600 00 0 77771         STZ     STLOC    
      00133  0634 00 4 77771         SXA     STLOC,4  
      00134 -0734 00 4 00000         PDX     0,4
      00135  0754 00 4 00000         PXA     0,4
      00136  0020 00 0 00115         TRA     T4 
                              *     
                  
                  
      00137  0634 00 4 00170  STH    SXA     STHX,4        SAVE IOH RETURN.   
      00140  0634 00 2 00163  A1     SXA     WRTX2,2  
      00141  0774 00 2 00026         AXT     22,2          BLANK  
      00142 -0500 00 0 00302         CAL     =H            OUT    
      00143  0602 00 2 00223         SLW     OUTPUT+22,2   OUTPUT 
                  
  BINARY CARD NO. SCH00006    
      00144  2 00001 2 00143         TIX     *-1,2,1       BUFFER.
      00145 -0500 00 4 00001         CAL     1,4           IOH CONTROL WORD.  
      00146  0771 00 0 00022         ARS     18            MOVE WORDS   
      00147  0400 00 4 00001         ADD     1,4           FROM   
      00150 -0734 00 2 00000         PDX     0,2           IOH    
      00151 -0734 00 4 00000         PDX     0,4
      00152  0621 00 0 00160         STA     MOVE          BUFFER 
      00153  0634 00 4 00174         SXA     CNTRL,4  
      00154  1 00001 4 00155         TXI     *+1,4,1  
      00155 -0634 00 4 00166         SXD     STHC,4   
      00156  1 00174 4 00157         TXI     *+1,4,OUTPUT-1     TO
      00157  0634 00 4 00161         SXA     MOVE+1,4      STH    
      00160 -0500 00 2 00000  MOVE   CAL     **,2          BUFFER 
      00161  0602 00 2 00000         SLW     **,2          ...    
      00162  2 00001 2 00160         TIX     MOVE,2,1      ...    
      00163  0774 00 2 00000  WRTX2  AXT     **,2     
      00164  0074 00 4 00000         TSX     .WRITE,4 
1            FAP                                                                                 PAGE 4     
                  
      00165  0 00000 0 00172                 FILNAM        TO     
      00166  0 00000 0 00174  STHC           CNTRL,,**     DISK.  
      00167  0 00000 0 00264         PZE     ZZZ
                  
  BINARY CARD NO. SCH00007    
      00170  0774 00 4 00000  STHX   AXT     **,4     
      00171  0020 00 4 00002         TRA     2,4           RETURN TO IOH.     
      00172  336321472533     FILNAM BCI     1,.TAPE. 
      00173  0 00000 0 00000         PZE  
      00174 -377777000000     CNTRL  OCT     777777000000   
      00175                   OUTPUT BSS     22 
                  
                  
                              *  CONVERTS A BINARY VALUE IN MQ INTO A BCD NUMBER WITH LEADING BLANKS  
                              *ROUTINE TO WRITE ON THE DISK 
                  
  BINARY CARD NO. SCH00008    
      00223  0634 00 4 00262  CALLDK SXA     IR4,4    
                  
      00224  0634 00 1 00247  INTBC  SXA     IX1,1    
      00225  0600 00 0 00276         STZ     ACLITE   
      00226 -0140 00 0 00230         TNO     *+2
      00227 -0625 00 0 00276         STL     ACLITE   
      00230  0600 00 0 00173         STZ    FILNAM+1  
      00231  0774 00 1 00044         AXT     36,1     
      00232 -0754 00 0 00000  RR     ZAC  
      00233  0221 00 0 00301         DVP     =10
      00234  0767 00 1 00044         ALS     36,1     
      00235 -0602 00 0 00173         ORS    FILNAM+1  
      00236  2 00006 1 00232         TIX     RR,1,6   
      00237 -0500 00 0 00173         CAL    FILNAM+1  
      00240  0774 00 1 00044         AXT     36,1     
      00241 -2 00006 1 00245  RT     TNX     RS,1,6   
      00242 -0765 00 0 00006         LGR     6  
      00243 -0100 00 0 00241         TNZ     RT 
      00244 -0500 00 0 00302         CAL     =H 
      00245 -0763 00 1 00044  RS     LGL     36,1     
      00246  0602 00 0 00173         SLW    FILNAM+1  
                  
  BINARY CARD NO. SCH00009    
      00247  0774 00 1 00000  IX1    AXT     **,1     
      00250 -0520 00 0 00276         NZT     ACLITE   
      00251  0140 00 0 00252         TOV     *+1
      00252  0074 00 4 00001         TSX     $.FSTAT,4
      00253  0 00000 0 00172                 FILNAM   
      00254 -0 00000 0 00260         MZE     *+4
      00255  0074 00 4 00003         TSX     $APPEND,4
      00256  0 00000 0 00172                 FILNAM   
      00257  0020 00 0 00262         TRA     *+3
      00260  0074 00 4 00004         TSX     $ASSIGN,4
      00261  0 00000 0 00172                 FILNAM   
      00262  0774 00 4 00000  IR4    AXT     **,4     
      00263  0020 00 4 00001         TRA     1,4
1            FAP                                                                                 PAGE 5     
                  
      00264  0020 60 0 00005  ZZZ    TRA*    $SNAP    
                              *     
      00265  3 77777 0 00000   UMAP  TXH     **,,-1   
      00266  3 00001 0 00000   MAD   TXH     **,,1    
      00267 -3 00001 0 00137   FORT  TXL     STH,,1   
      00270 -3 00120 0 00000   CDCNT TXL     ,,80     
      00271 -3 00204 0 00000   TPCNT TXL     ,,132    
      00272  0 00000 0 00000  TEMP  
                  
  BINARY CARD NO. SCH00010    
      00273  0 00000 0 00000   TGTMP
      00274  0 00000 0 00000   2SAVE
      00275  0 00000 0 00000  COLIND
      00276                   ACLITE BSS     1             ZERO IF AC LITE WAS OFF - J WOOD 1 FEB 1965
                              *     
                              *     
                       00026  RECLEN EQU     22 
                       77771         COMMON  -200     
                       77771   STLOC COMMON  1  
                       77742         COMMON  RECLEN   
                       77742   REC   COMMON  1  
                       77741   COL   COMMON  1  
                       77740   RTN   COMMON  1  
                       77737   FMT   COMMON  1  
                                     END  
                  
        LITERALS  
                  
  BINARY CARD NO. SCH00011    
      00277  000000000001     
      00300  000000000003     
      00301  000000000012     
      00302  606060606060     
1            FAP                                                                                 PAGE 1     
                        POST PROCESSOR ASSEMBLY DATA  
                  
       77736 IS THE LAST LOCATION NOT USED BY THIS PROGRAM  
        303 IS THE FIRST LOCATION NOT USED BY THIS PROGRAM  
                  
0REFERENCES TO DEFINED SYMBOLS      
        140     A1      
        232     RR   236
        245     RS   241
        241     RT   243
        104     T1    57,  101
        115     T4   105,  136
      77741    COL    47,  277
      77737    FMT    42,  277
        262    IR4   223
        247    IX1   224
         71    .TR    63
        266    MAD    44,  111,  125
      77742    REC   277
      77740    RTN    25,   43,   45,   67,  277
        137    STH   267
        125    SYT   114
        264    ZZZ   167
        267   FORT    23,  120
         21   IXR4    17
         56   .PU1    53
         41   JN21    24,   32,  124
        160   MOVE   152,  157,  162
          5   SNAP   264
        166   STHC   155
        170   STHX   137
        272   TEMP    33,   36,   40,  116,  121,  123
        265   UMAP    35,  113,  130
        274  2SAVE    65
        270  CDCNT    10,   51
        174  CNTRL   153,  166
        224  INTBC      
         64  JOIN1    60
         17  SAVE4    13
      77771  STLOC   132,  133,  277
        273  TGTMP   126,  127
        271  TPCNT    14,   61
        163  WRTX2   140
          2  (IOH)    50
         10  (SCH)     0
         14  (STH)     0,   14
        276 ACLITE   225,  227,  250
          3 APPEND   255
          4 ASSIGN   260
        223 CALLDK    20,   55,   77
        275 COLIND    11,   15,   46,   52,   62
        172 FILNAM   165,  230,  235,  237,  246,  253,  256,  261
          1 .FSTAT   252
         51 .PNCHL     0,   51
         51 .PUNCH     0,   51
         61 .TAPWR     0,   61
1            FAP                                                                                 PAGE 2     
                        POST PROCESSOR ASSEMBLY DATA  
                  
          0 .WRITE   164
        175 OUTPUT   143,  156
         26 RECLEN   277
         14 (STHM)     0,   14
                  
0 NO ERROR IN ABOVE ASSEMBLY. 




  SCHN   BCD 06/25/69 2049.0   10852         00000    
1            SCHAIN  SETS AND EXECUTES A CHAIN OF COMMANDS.                      04/23/69 2323.0 PAGE 1     
                  
                              *      SAVES COMMAND LISTS AND COUNTERS.  
                              *      READS A BCD FILE, JUSTIFIES THE ARGUMENTS, SUBSTITUTES DUMMIES   
                              *      WITH ACTUAL VALUES.    
                              *      LOADS 3 COMMANDS, BRACKETTED BY 'SAVE' AND 'RESUME'. 
                              *      STARTS EXECUTION OF THE CHAIN.     
                              *      ON RETURN LOADS 3 MORE COMMANDS, AND SO FORTH, UNTIL THE FILE OF 
                              *      COMMANDS IS EXHAUSTED. 
                              *      RESTORE PREVIOUS COMMAND BUFFERS AND COUNTERS, RETURN TO CALLER. 
                              * CALLING SEQUENCE
                              * MAD  A = SCHAIN.(FIL, ANY MAD LIST OR NOTHING)
                              *      WHERE FIL IS A 2 WORDS VECT.VAL. GIVING THE NAMES OF THE FILE OF 
                              *      COMMANDS   
                              *      RETURNS A=0 IF EXECUTION WITHOUT ERROR (AS FAR AS SCHAIN CAN KNOW
                              *      OR A=ERROR CODE  
                              *      OR A=...XXX  WHICH IS THE NAME OF A FILE ...XXX SAVED REPRESENTIN
                              *      THE LAST CORE IMAGE LEFT BY THE LAST COMMAND IN THE CHAIN. 
                              *      A MAD LIST IS E.G. B, C(3), D(I)...D(J), W(-7), ETC...     
                              *      WITH THE EXCEPTION OF FILE NAMES, NO ARGUMENT NEED BE RIGHT JUSTI
                              * COMPUTATION CENTER            LOUIS POUZIN    
                              *      MAY 64     
                              *     
                                             MODIFIED FOR NEW FILE SYSTEM  JUNE 65  EMK   
                  
                              *      SWITCHES TO COMMON FILE A    
                              SWUS   MACRO   A  
                                     CAL     A  
                                     TSX     SWCF,3   
                              SWUS   END  
                  
                  
                              *      SAVES MACHINE REGISTERS
                              SAV    MACRO
                                     STI     IND
                                     SXA     X1,1     
                                     SXA     X2,2     
                                     SXA     X3,3     
                                     SXD     X4,4     
                                     AXT     -1,2     
                                     AXT     ,3 
                                     SXA     XMOD,2   
                                     LMTM 
                                     NZT     XMOD     
                                     SXA     X3,3     
                                     SXA     X5,5     
                                     SXA     X6,6     
                                     SXA     X7,7     
                              SAV    END  
                  
                  
                              *      RESTORES MACHINE REGISTERS   
                              RSTOR  MACRO
                                     LDI     IND
                              X3     AXT     **,3     
                              X5     AXT     **,5     
                              X6     AXT     **,6     
                              X7     AXT     **,7     
1            SCHAIN  SETS AND EXECUTES A CHAIN OF COMMANDS.                      04/23/69 2323.0 PAGE 2     
                  
                                     NZT     XMOD     
                                     EMTM 
                              X1     AXT     **,1     
                              X2     AXT     **,2     
                                     LXD     X4,4     
                              RSTOR  END  
                              TEMP1  MACRO   A,B           UNTIL T MODE FILES ARE KEPT IN COMMON FILES
                                     ZET     FAIL     
                                     NZT     LCF
                                     TRA     B  
                                     TSX     $CHFILE,4
                                     PTH     RESTOR+1 
                                     PTH     RESTOR+2 
                                     PTH     =1 
                                     PTH     =-0           DO NOT ALTER 
                                     PTH     =-0           ..     
                                     PTH     *+1           ERROR RETURN 
                              B      SYN     *  
                              TEMP1  END  
                  
                  
                  
                  
                  
                  
  BINARY CARD NO. SCHAIN00    
                       00035         ENTRY   SCHAIN   
                  
        TRANSFER VECTOR 
                  
  BINARY CARD NO. SCHAIN01    
      00000  274521446060     GNAM  
      00001  272563232645     GETCFN
      00002  234643636060     COLT  
      00003  266263216325     FSTATE
      00004  622525426060     SEEK  
      00005  444665250160     MOVE1 
      00006  444665250260     MOVE2 
      00007  514164626360     RJUST 
      00010  444665250360     MOVE3 
      00011  272563234362     GETCLS
      00012  272563234323     GETCLC
      00013  242543256325     DELETE
      00014  665126436760     WRFLX 
      00015  622563254626     SETEOF
      00016  655125212460     VREAD 
      00017  644547214243     UNPAKL
      00020  712543606060     ZEL   
      00021  622563234362     SETCLS
      00022  276345214460     GTNAM 
      00023  464725456060     OPEN  
                  
  BINARY CARD NO. SCHAIN02    
      00024  665126314325     WRFILE
      00025  234346622560     CLOSE 
      00026  622563234323     SETCLC
1            SCHAIN  SETS AND EXECUTES A CHAIN OF COMMANDS.                      04/23/69 2323.0 PAGE 3     
                  
      00027  233026314325     CHFILE
      00030  233045234644     CHNCOM
      00031  234644263143     COMFIL
      00032  244651444563     DORMNT
                  
            LINKAGE DIRECTOR  
      00033  000000000000     
      00034  622330213145     
                  
                       00660  DBUF   EQU     432
                  
                  
                       00033  X4     SYN     *-2
                  
                       00035  SCHAIN SYN     *  
      00035                          SAV  
      00035  0604 00 0 01120         STI     IND                                                              .001
      00036  0634 00 1 00677         SXA     X1,1                                                             .001
      00037  0634 00 2 00700         SXA     X2,2                                                             .001
      00040  0634 00 3 00671         SXA     X3,3                                                             .001
      00041 -0634 00 4 00033         SXD     X4,4                                                             .001
      00042  0774 00 2 77777         AXT     -1,2                                                             .001
      00043  0774 00 3 00000         AXT     ,3                                                               .001
      00044  0634 00 2 01121         SXA     XMOD,2                                                           .001
      00045  0760 00 0 00016         LMTM                                                                     .001
      00046 -0520 00 0 01121         NZT     XMOD                                                             .001
      00047  0634 00 3 00671         SXA     X3,3                                                             .001
                  
  BINARY CARD NO. SCHAIN03    
      00050  0634 00 5 00672         SXA     X5,5                                                             .001
      00051  0634 00 6 00673         SXA     X6,6                                                             .001
      00052  0634 00 7 00674         SXA     X7,7                                                             .001
      00053  0057 00  777777         RIR     /  
      00054  0600 00 0 01123         STZ     FAIL     
      00055  0634 00 0 00165         ZSA     BL            CLEAR READING COUNTER    
      00056  0055 00  000200         SIR     COMSW         IN CASE 1ST COMMAND SWITCHES U.F.D.  
      00057  0774 00 4 00024         AXT     CL,4     
      00060 -0500 00 0 01663         CAL     =H 
      00061  0602 00 4 01203         SLW     ARG1+CL,4
      00062  2 00001 4 00061         TIX     *-1,4,1  
      00063  0074 00 4 00000         TSX     $GNAM,4       GET FILE NAMES     
      00064  0 00000 0 00033         PZE     X4 
      00065  0 00000 0 01131         PZE     FIL
      00066  0074 00 4 00001         TSX     $GETCFN,4
      00067  0602 00 0 01125         SLW     HCF           HOME COMMON FILE   
      00070  0602 00 0 01124         SLW     CCF           CURRENT COMMON FILE SWITCHED   
      00071  0602 00 0 01127         SLW     PCF           PREVIOUS LOCAL COMMON FILE     
      00072  0602 00 0 01126         SLW     LCF
      00073  0074 00 4 00002         TSX     $COLT,4  
                  
  BINARY CARD NO. SCHAIN04    
      00074  0 00000 0 00033         PZE     X4 
      00075 -0734 00 1 00000         PDX     ,1            LENGTH OF CALLING SEQUENCE     
      00076  0636 00 4 00703         SCA     AH,4          SAVE RETURN  
      00077  0636 00 4 00115         SCA     AB,4          LST ADDRESS AFTER CALLING SEQUENCE   
      00100  0074 00 4 00003         TSX     $FSTATE,4
1            SCHAIN  SETS AND EXECUTES A CHAIN OF COMMANDS.                      04/23/69 2323.0 PAGE 4     
                  
      00101  3 00000 0 01131         PTH     FIL
      00102  3 00000 0 01132         PTH     FIL+1    
      00103  3 00010 0 01110         PTH     ARRAY,,8 
      00104  3 00000 0 00705         PTH     ZZ+1          ERROR RETURN 
      00105 -0500 00 0 01132         CAL     FIL+1         SET NAMES BACKWARD 
      00106  0602 00 0 01130         SLW     FIL-1         FOR MAD CALL TO VREAD    
      00107  0074 00 4 00004         TSX     $SEEK,4  
      00110  0 00000 0 01131         PZE     FIL
      00111  0074 00 4 00005         TSX     $MOVE1,4 
      00112  2 01250 0 01226         TIX     ACTARG,,ACTARG+CL-2  
      00113  0774 00 2 00000         AXT     ,2            INIT ARGUMENTS WORD COUNT
      00114  0020 00 0 00131         TRA     AE            CHECK IF ANY ARGUMENT    
      00115 -0500 00 1 00000  AB     CAL     **,1          FROM 2ND TO LAST ARGUMENT
      00116  0602 00 0 00120         SLW     AC 
      00117  0074 00 4 00006         TSX     $MOVE2,4 
                  
  BINARY CARD NO. SCHAIN05    
      00120  0 00000 0 00000  AC     ***     **,,**        SUCCESSIVE ARGUMENTS FROM CALL TO SCHAIN   
      00121  0601 00 0 01277  AK     STO     K  
      00122  1 77777 2 00123         TXI     *+1,2,-1      WORD COUNTER 
      00123  0402 00 0 01663         SUB     =H 
      00124  0100 00 0 00127         TZE     BT            SKIP IF ALL BLANK  
      00125  0074 00 4 00007         TSX     $RJUST,4 
      00126  0 00000 0 01277         PZE     K  
      00127 -1 00131 0 00132  BT     STR     AD,,AE   
      00130  0020 00 0 00121         TRA     AK 
      00131  2 00001 1 00115  AE     TIX     AB,1,1   
      00132 -0634 00 2 00343  AD     SXD     SS,2          ARGUMENT LIST EXHAUSTED  
      00133  0074 00 4 00010         TSX     $MOVE3,4 
                  
                  
                              *      SAVE COMMAND LISTS BUFFERS AND COUNTERS. 
                  
      00134  0774 00 1 00001         AXT     1,1
      00135  0774 00 2 01504         AXT     CBUF,2   
      00136  0634 00 2 00141  U      SXA     *+3,2    
      00137 -0634 00 1 00141         SXD     *+2,1    
      00140  0074 00 4 00011         TSX     $GETCLS,4
      00141  0 00000 0 00000         PZE     **,,**   
      00142  1 00024 2 00143         TXI     *+1,2,CL 
      00143  1 00001 1 00144         TXI     *+1,1,1  
                  
  BINARY CARD NO. SCHAIN06    
      00144 -3 00005 1 00136         TXL     U,1,CN   
      00145  0074 00 4 00012         TSX     $GETCLC,4
      00146  0602 00 0 01122         SLW     CLC
      00147 -0100 00 0 00157         TNZ     A  
      00150  0074 00 4 00013         TSX     $DELETE,4
      00151  0 00000 0 01036         PZE     FIL1     
      00152  0100 00 0 00157         TZE     A  
      00153  0601 00 0 01123         STO     FAIL     
      00154  0074 00 4 00014         TSX     $WRFLX,4 
      00155  0 00003 0 01045         PZE     MES1,,3  
      00156  0020 00 0 00670         TRA     OUT
                       00157  A      SYN     *  
      00157  0074 00 4 00015         TSX     $SETEOF,4
1            SCHAIN  SETS AND EXECUTES A CHAIN OF COMMANDS.                      04/23/69 2323.0 PAGE 5     
                  
      00160  0 00000 0 00630         PZE     EOF           RETURN WHEN FILE ENDS    
      00161  0774 00 2 00002         AXT     FC,2          BEGIN WITH COMMAND NO. 2  (USUALLY)  
                       00162  B      SYN     *  
                       00162  BE     SYN     *  
      00162  0074 00 4 00016         TSX     $VREAD,4 
      00163  3 00000 0 01131         PAR     FIL
      00164  2 01276 0 01251         TIX     AG,,AG+RL-1    
      00165  0774 00 4 00000  BL     AXT     **,4          READING COUNTER    
      00166  1 00001 4 00167         TXI     *+1,4,1  
      00167  0634 00 4 00165         SXA     *-2,4    
                  
  BINARY CARD NO. SCHAIN07    
      00170  0120 00 0 00174         TPL     BS            SKIP IF VARIABLE LENGTH RECORD 
      00171 -0340 00 0 01654         LAS     =12           CARD IMAGE NOT LONGER THAN 12 WORDS  
      00172 -0500 00 0 01654         CAL     =12
      00173  0761 00 0 00000         NOP  
      00174 -0340 00 0 01655  BS     LAS     =22           BCD RECORD NOT LONGER THAN 22 WORDS  
      00175 -0500 00 0 01655         CAL     =22
      00176  0761 00 0 00000         NOP  
      00177 -0130 00 0 00000         XCL                   IGNORE SIGN  
      00200  0200 00 0 01653         MPY     =6             CHARACTER COUNT   
      00201 -0763 00 0 00066         LGL     36+18    
      00202  0760 00 0 00006         COM                   -COUNT-1     
      00203  0622 00 0 00272         STD     AA 
      00204  0622 00 0 00245         STD     GG 
                  
                  
                              *      TEST FOR 1ST CHARACTER IN THE LINE 
                  
      00205  0074 00 4 00017         TSX     $UNPAKL,4     UNPACKS LINE 
      00206  2 01276 0 01251         TIX     AG,,AG+RL-1    
      00207  2 01503 0 01300         TIX     K+1,,K+6*RL    
      00210  0500 00 0 01300         CLA     K+1
      00211  0402 00 0 01660         SUB     =H*00000 
      00212  0100 00 0 00162         TZE     B  
      00213  0500 00 0 01300         CLA     K+1
                  
  BINARY CARD NO. SCHAIN08    
      00214  0402 00 0 01657         SUB     =H$00000 
      00215 -0100 00 0 00236         TNZ     F  
      00216  0056 00  000100         RNT     COMSET   
      00217  0020 00 0 00232         TRA     BB 
      00220  0056 00  000040         RNT     LKHED    
      00221 -3 00002 2 00232         TXL     BB,2,FC  
      00222  0054 00  000020         RFT     PRINT    
      00223  0020 00 0 00232         TRA     BB            KEEP PRINTING
      00224  0055 00  000021         SIR     NDLOT+PRINT    
      00225  0057 00  000040         RIR     LKHED    
      00226 -0500 00 0 01157  BQ     CAL     ARG1          CHECKS CURRENT COMMAND   
      00227  0020 00 0 00443         TRA     J-1           GO CHECK CN-1 TH.  
                       00230  BA     SYN     *  
      00230  0056 00  000020         RNT     PRINT    
      00231  0020 00 0 00367         TRA     BC            GO ON WITH NEXT COMMAND  
      00232  0055 00  000020  BB     SIR     PRINT    
      00233  0074 00 4 00014         TSX     $WRFLX,4 
      00234  0 00014 0 01251         PZE     AG,,12   
1            SCHAIN  SETS AND EXECUTES A CHAIN OF COMMANDS.                      04/23/69 2323.0 PAGE 6     
                  
      00235  0020 00 0 00162         TRA     B             NEXT LINE FROM FILE
                  
                  
                              *      TEST OF 1ST WORD 
                  
                       00236  F      SYN     *  
      00236  0774 00 6 00024         AXT     CL,6     
      00237 -0500 00 0 01663         CAL     =H 
                  
  BINARY CARD NO. SCHAIN09    
      00240  0602 00 6 01157         SLW     ARG+CL,6      BLANK OUT ARGUMENT LIST  
      00241  2 00001 6 00240         TIX     *-1,6,1  
      00242  0774 00 6 00000         AXT     0,6           WORD INDEX   
      00243  0774 00 7 77777         AXT     -1,7          CHARACTER INDEX    
      00244  0020 00 0 00246         TRA     *+2
      00245 -3 00000 7 00311  GG     TXL     L,7,**        -CHAR COUNT - 1    
      00246 -0500 00 7 01277         CAL     K,7
      00247 -0340 00 0 01661         LAS     =O570000000000 
      00250  0020 00 0 00252         TRA     G-4
      00251 -0500 00 0 01662         CAL     =H 00000 
      00252 -0340 00 0 01662         LAS     =H 00000 
      00253  0020 00 0 00265         TRA     C  
      00254  1 77777 7 00245         TXI     GG,7,-1  
      00255  0020 00 0 00265         TRA     C  
      00256 -0500 00 7 01277  G      CAL     K,7
      00257 -0340 00 0 01661         LAS     =O570000000000 
      00260  0020 00 0 00262         TRA     C-3
      00261 -0500 00 0 01662         CAL     =H 00000 
      00262 -0340 00 0 01662         LAS     =H 00000      ANY BLANK FIELD IS A DELIMITER 
      00263  0020 00 0 00265         TRA     *+2           BETWEEN ARGUMENTS  
                  
  BINARY CARD NO. SCHAIN10    
      00264  1 77777 6 00274         TXI     D,6,-1   
      00265 -0130 00 0 00000  C      XCL  
      00266 -0500 00 6 01133         CAL     ARG,6    
      00267 -0763 00 0 00006         LGL     6             AT MOST 6 RIGHTMOST CHARACTERS ARE KEPT    
      00270  0602 00 6 01133         SLW     ARG,6    
      00271  1 77777 7 00272         TXI     *+1,7,-1 
      00272  3 00000 7 00256  AA     TXH     G,7,**        LOOP IF MORE CHARACTERS  
      00273  1 77777 6 00274         TXI     *+1,6,-1 
      00274 -3 77776 6 00307  D      TXL     H,6,-2        SKIP UNLESS 1ST WORD     
                              *      INSERT HERE CHECK OF ALWAYS PERMITTED KEYWORDS 
      00275  0057 00  000020         RIR     PRINT    
      00276 -0500 00 0 01133         CAL     ARG
      00277  0056 00  000002         RNT     TCHAIN        SKIP WHEN 'CHAIN' ALREADY OCCURRED   
      00300 -0340 00 0 01035         LAS     CHAIN    
      00301  0020 00 0 00303         TRA     *+2
      00302  0020 00 0 00304         TRA     AJ 
      00303  0020 00 0 00307         TRA     H  
      00304  0054 00  000100  AJ     RFT     COMSET        SKIP IF NO EXECUTABLE COMMAND YET    
      00305  0020 00 0 00727         TRA     ERROR    
      00306  0055 00  000006         SIR     TCHAIN+ARGLIS  
                              *      INSERT HERE CHECK OF KEYWORDS ALLOWED AFTER 'CHAIN' ONLY   
      00307 -3 77755 6 00311  H      TXL     L,6,-CL+1     SKIP WHEN ONLY FENCE LEFT
1            SCHAIN  SETS AND EXECUTES A CHAIN OF COMMANDS.                      04/23/69 2323.0 PAGE 7     
                  
  BINARY CARD NO. SCHAIN11    
      00310  1 77777 7 00245         TXI     GG,7,-1       NEXT WORD    
                  
      00311 -3 00000 6 00162  L      TXL     B,6,0         NEXT LINE IF ALL BLANK   
      00312 -0500 00 0 01072         CAL     FENCE    
      00313  0602 00 6 01133         SLW     ARG,6         SET FENCE    
      00314  0056 00  000004         RNT     ARGLIS   
      00315  0020 00 0 00327         TRA     P             NOT A 'CHAIN' KEYWORD    
                  
                  
                              *      SETS DUMMY ARGUMENTS LIST    
                  
      00316 -0634 00 6 00324         SXD     N,6
      00317 -0634 00 6 00344         SXD     S,6
      00320  0774 00 1 00000         AXT     0,1
      00321 -0500 00 1 01133  M      CAL     ARG,1         FENCE IS NOT TRANSMITTED 
      00322  0602 00 1 01203         SLW     ARLIS,1  
      00323  1 77777 1 00324         TXI     *+1,1,-1 
      00324  3 00000 1 00321  N      TXH     M,1,**        ** = -NR. OF DUMMIES     
      00325  0057 00  000004         RIR     ARGLIS   
      00326  0020 00 0 00162         TRA     B             NEXT COMMAND 
                  
                  
                              *      SUBSTITUTES DUMMY ARGUMENTS  
                  
                       00327  P      SYN     *  
      00327 -0634 00 6 00350         SXD     S1,6     
      00330  0056 00  000002         RNT     TCHAIN   
      00331  0020 00 0 00351         TRA     W1            NO DUMMY ARGUMENTS 
      00332 -0534 00 4 00343         LXD     SS,4     
      00333 -3 00000 4 00351         TXL     W1,4,0        SKIP WHEN NO ACTUAL ARGUMENTS  
                  
  BINARY CARD NO. SCHAIN12    
      00334  0774 00 1 00000         AXT     0,1           IX1 = ARGUMENT IN COMMAND
      00335 -0500 00 1 01133  R      CAL     ARG,1    
      00336  0774 00 4 00000         AXT     0,4           IX4 = DUMMY IN CHAIN PSEUDO    
      00337 -0340 00 4 01204  Q      LAS     ARLIS+1,4
      00340  1 77777 4 00343         TXI     SS,4,-1       NEXT DUMMY ARGUMENT
      00341  1 77777 1 00346         TXI     BU,1,-1       GO TO SUBSTITUTION 
      00342  1 77777 4 00343         TXI     SS,4,-1       NEXT DUMMY ARGUMENT
      00343 -3 00000 4 00345  SS     TXL     *+2,4,**      SKIP WHEN NO MORE ACTUAL ARGUMENTS. **=-WC 
      00344  3 00000 4 00337  S      TXH     Q,4,**        NEXT ARGUMENT IN 'CHAIN'   ** = -NR OF DUMM
      00345  1 77777 1 00350         TXI     *+3,1,-1 
      00346 -0500 00 4 01226  BU     CAL     ACTARG,4      GET ACTUAL VALUE   
      00347  0602 00 1 01132         SLW     ARG-1,1       AND SUBSTITUTES IN COMMAND LIST
      00350  3 00000 1 00335  S1     TXH     R,1,**        NEXT ARGUMENT IN COMMAND.  ** = -N-1 ARG   
                  
                  
                              *      CHECKS IF (NIL) OR (END) PSEUDO-COMMAND  
                       00351  W1     SYN     *  
      00351  0500 00 0 01133         CLA     ARG
      00352  0402 00 0 01033         SUB     NIL
      00353  0100 00 0 00162         TZE     B             NIL IGNORED. TO NEXT COMMAND   
      00354  0500 00 0 01133         CLA     ARG
      00355  0402 00 0 01034         SUB     END
      00356  0100 00 0 00630         TZE     EOF           FORCES END OF PROCESS    
1            SCHAIN  SETS AND EXECUTES A CHAIN OF COMMANDS.                      04/23/69 2323.0 PAGE 8     
                  
      00357  0054 00  000040         RFT     LKHED         SKIP WHEN LOOK UP NEXT COMMAND 
                  
  BINARY CARD NO. SCHAIN13    
      00360  0020 00 0 00432         TRA     AF 
      00361  0074 00 4 00707         TSX     SWUFD,4       CHECK FOR A SWITCHING COMMAND  
      00362 -3 00000 3 00366         TXL     BN,3,0        SKIP IF NO   
      00363  0055 00  000200         SIR     COMSW         IT MIGHT     
      00364  3 00002 3 00366         TXH     BN,3,AQ-COMF-1          IT IS COMFIL   
      00365  0055 00  000400         SIR     COPY          ANOTHER IMPLICIT SWITCHING COMMAND   
      00366  0055 00  000140  BN     SIR     COMSET+LKHED   
                              *      SET CURRENT COMMAND. SQUEEZES 'NIL'S AND REPLACES 'END'S.  
                       00367  BC     SYN     *  
      00367  0560 00 0 01072         LDQ     FENCE         FENCE  
      00370  0774 00 4 00024         AXT     CL,4     
      00371  0774 00 1 00025         AXT     CL+1,1   
      00372 -0500 00 4 01157  BG     CAL     ARG+CL,4 
      00373 -0340 00 0 01033         LAS     NIL
      00374  0020 00 0 00376         TRA     *+2
      00375  0020 00 0 00403         TRA     BM 
      00376 -0340 00 0 01034         LAS     END
      00377  0020 00 0 00401         TRA     *+2
      00400 -0130 00 0 00000         XCL                   END REPLACED BY A FENCE  
      00401  1 77777 1 00402         TXI     *+1,1,-1 
      00402  0602 00 1 01203         SLW     ARG1+CL,1
      00403  2 00001 4 00372  BM     TIX     BG,4,1   
                              *      CHECKS IF COMMAND MAY SWITCH U.F.D.
                  
  BINARY CARD NO. SCHAIN14    
      00404  0056 00  000200         RNT     COMSW    
      00405  0020 00 0 00162         TRA     B             TO NEXT COMMAND    
      00406  0054 00  000400         RFT     COPY     
      00407  0020 00 0 00426         TRA     AM 
      00410  0500 00 0 01157         CLA     ARG1     
      00411  0402 00 0 00755         SUB     COMF     
      00412 -0100 00 0 00430         TNZ     AN            SKIP IF NOT 'COMFIL'     
      00413 -0534 00 1 00350         LXD     S1,1     
      00414  0600 00 0 01126         STZ     LCF
      00415  3 77776 1 00424         TXH     AL,1,-2       SKIP IF NO ARGUMENT
      00416 -0500 00 0 01160         CAL     ARG1+1        1ST ARGUMENT 
      00417  0322 00 0 01072         ERA     FENCE    
      00420  0100 00 0 00424         TZE     AL            SKIP IF FENCE
      00421  0074 00 4 00020         TSX     $ZEL,4   
      00422  0 00000 0 01160         PZE     ARG1+1   
      00423  0601 00 0 01126         STO     LCF           NEW COMMON FILE    
      00424  0057 00  000040  AL     RIR     LKHED    
      00425  0020 00 0 00162         TRA     B             TO NEXT COMMAND    
      00426  0600 00 0 01126  AM     STZ     LCF
      00427  0057 00  000400         RIR     COPY     
                  
  BINARY CARD NO. SCHAIN15    
      00430  0057 00  000200  AN     RIR     COMSW    
      00431  0020 00 0 00162         TRA     B             TO NEXT COMMAND    
                       00432  AF     SYN     *  
      00432  0074 00 4 00707         TSX     SWUFD,4       IS IT A SWITCHING COMMAND
      00433  3 00002 3 00440         TXH     AT,3,AQ-COMF-1 COMFIL IS NEXT    
      00434 -3 00000 3 00442         TXL     AS,3,0        NO SWITCHING IN NEXT     
1            SCHAIN  SETS AND EXECUTES A CHAIN OF COMMANDS.                      04/23/69 2323.0 PAGE 9     
                  
      00435 -0520 00 0 01126         NZT     LCF
      00436  0020 00 0 00464         TRA     W  
      00437  0055 00  000400         SIR     COPY     
      00440  0055 00  000201  AT     SIR     NDLOT+COMSW    
      00441  0020 00 0 00464         TRA     W  
      00442 -3 00002 2 00464  AS     TXL     W,2,CN-3      NO COMFIL SWITCHING IN NEXT COMMAND  
      00443  3 00003 2 00464         TXH     W,2,CN-2 
                              *      SPECIAL PROCEDURE FOR THE (CN-2)TH COMMAND     
                       00444  J      SYN     *  
      00444  0774 00 3 00037         AXT     AY-AX,3  
      00445 -0340 00 3 01033         LAS     AY,3          DOES NEXT LET CORE IMAGE.  LAC = ARG 
      00446  0020 00 0 00450         TRA     *+2
      00447  0020 00 0 00452         TRA     AZ            YES    
      00450  2 00001 3 00445         TIX     *-3,3,1  
      00451  0020 00 0 00464         TRA     W             NO     
                       00452  AZ     SYN     *  
      00452  0054 00  000030         RFT     PRINT+EF 
      00453  0020 00 0 00462         TRA     X  
                  
  BINARY CARD NO. SCHAIN16    
      00454  0774 00 3 00014         AXT     AW-AV,3  
      00455 -0340 00 3 00774         LAS     AW,3          DOES NEXT EXPECT CORE IMAGE    
      00456  0020 00 0 00460         TRA     *+2
      00457  0020 00 0 00462         TRA     X             YES    
      00460  2 00001 3 00455         TIX     *-3,3,1  
      00461  0020 00 0 00463         TRA     X+1
      00462  0055 00  002000  X      SIR     CORE     
      00463  0055 00  000001         SIR     NDLOT    
                              *      LOADS COMMAND LIST     
                  
      00464 -0634 00 2 00466  W      SXD     *+2,2    
      00465  0074 00 4 00021         TSX     $SETCLS,4
      00466  0 00000 0 01157         PZE     ARG1,,** 
      00467  1 00001 2 00470         TXI     *+1,2,1       NEXT COMMAND 
      00470  3 00004 2 00473         TXH     AP,2,CN-1     SKIP IF LAST-1 COMMAND   
      00471  0056 00  000001         RNT     NDLOT    
      00472  0020 00 0 00367         TRA     BC            TO NEXT COMMAND    
                       00473  AP     SYN     *  
      00473                          SWUS    LCF
      00473 -0500 00 0 01126         CAL     LCF                                                              .001
      00474  0074 00 3 00717         TSX     SWCF,3                                                           .001
      00475 -0500 00 0 01126         CAL     LCF
      00476  0402 00 0 01127         SUB     PCF
      00477  0100 00 0 00501         TZE     *+2           SKIP IF SAME COMFIL FOR CHAIN  
                  
  BINARY CARD NO. SCHAIN17    
      00500  0057 00  005000         RIR     NAM+NAM1      TO GET NEW NAMES   
      00501  0054 00  001000         RFT     NAM
      00502  0020 00 0 00510         TRA     Y  
                  
                  
                              *      GETS A FILE NAME FOR TEMPORARY STORAGE   
1            SCHAIN  SETS AND EXECUTES A CHAIN OF COMMANDS.                      04/23/69 2323.0 PAGE 10    
                  
      00503  0074 00 4 00022         TSX     $GTNAM,4 
      00504  0 00000 0 01037         PZE     SAVED    
      00505  0055 00  001000         SIR     NAM
      00506  0601 00 0 01070         STO     SAVE+1   
      00507  0601 00 0 01074         STO     RESUME+1 
                  
                  
                              *      SETS BRACKET COMMANDS  
                  
                       00510  Y      SYN     *  
      00510  0074 00 4 00021         TSX     $SETCLS,4
      00511  0 00001 0 01067         PZE     SAVE,,1  
      00512  0056 00  002000         RNT     CORE     
      00513  0020 00 0 00551         TRA     Z  
      00514  0054 00  004000         RFT     NAM1     
      00515  0020 00 0 00545         TRA     T             SKIP IF NAME ASSIGNED    
      00516  0074 00 4 00023         TSX     $OPEN,4       CREATE DUMMY FILE  
      00517  3 00000 0 01664         PTH     =H     W 
      00520  3 00000 0 01074         PTH     RESUME+1 
      00521  3 00000 0 01075         PTH     RESUME+2 
      00522  3 00000 0 01651         PTH     =1            TEMPORARY FILE     
      00523  3 00000 0 01652         PTH     =2            DISK   
                  
  BINARY CARD NO. SCHAIN18    
      00524  0074 00 4 00024         TSX     $WRFILE,4
      00525  3 00000 0 01074         PTH     RESUME+1 
      00526  3 00000 0 01075         PTH     RESUME+2 
      00527  3 00000 0 01650         PTH     =0            CONTINUE WRITING.  
      00530  3 00024 0 01157         PTH     ARG1,,CL 
      00531  3 00000 0 01656         PTH     =-0           EOF ON WRITE 
      00532  3 00000 0 01656         PTH     =-0           EOFCT ON WRITE     
      00533  3 00000 0 00705         PTH     ZZ+1     
      00534  0074 00 4 00025         TSX     $CLOSE,4 
      00535  3 00000 0 01074         PTH     RESUME+1 
      00536  3 00000 0 01075         PTH     RESUME+2 
      00537  3 00000 0 00705         PTH     ZZ+1     
      00540  0074 00 4 00022         TSX     $GTNAM,4 
      00541  0 00000 0 01037         PZE     SAVED    
      00542  0055 00  004000         SIR     NAM1     
      00543  0601 00 0 01100         STO     SAVE1+1       SET NAMES FOR CORE IMAGE 
      00544  0601 00 0 01104         STO     RESTOR+1 
                       00545  T      SYN     *  
      00545 -0634 00 2 00547         SXD     *+2,2    
      00546  0074 00 4 00021         TSX     $SETCLS,4
      00547  0 00000 0 01077         PZE     SAVE1,,**     SAVE CORE IMAGE    
                  
  BINARY CARD NO. SCHAIN19    
      00550  1 00001 2 00551         TXI     *+1,2,1  
                       00551  Z      SYN     *  
      00551 -0634 00 2 00553         SXD     *+2,2    
      00552  0074 00 4 00021         TSX     $SETCLS,4
      00553  0 00000 0 01073         PZE     RESUME,,**     
1            SCHAIN  SETS AND EXECUTES A CHAIN OF COMMANDS.                      04/23/69 2323.0 PAGE 11    
                  
                              *      STARTS CHAIN     
                  
      00554 -0754 00 2 00000         PXD     ,2 
      00555  0400 00 0 01651         ADD     =1 
      00556  0074 00 4 00026         TSX     $SETCLC,4
      00557                          TEMP1
      00557  0520 00 0 01123         ZET     FAIL                                                             .001
      00560 -0520 00 0 01126         NZT     LCF                                                              .001
      00561  0020 00 0 00571         TRA     ..002                                                            .001
      00562  0074 00 4 00027         TSX     $CHFILE,4                                                        .001
      00563  3 00000 0 01104         PTH     RESTOR+1                                                         .001
      00564  3 00000 0 01105         PTH     RESTOR+2                                                         .001
      00565  3 00000 0 01651         PTH     =1                                                               .001
      00566  3 00000 0 01656         PTH     =-0           DO NOT ALTER                                       .001
      00567  3 00000 0 01656         PTH     =-0           ..                                                 .001
      00570  3 00000 0 00571         PTH     *+1                                                              .001
                       00571  ..002  SYN     *                                                                .001
      00571  0600 00 0 01123         STZ     FAIL          RESET POSSIBLE FILE NAME 
      00572  0074 00 4 00030         TSX     $CHNCOM,4
      00573  3 00000 0 01651         PAR     =1            KEEP CORE IMAGE    
                  
                  
                              *      RETURN  AFTER CHAIN EXECUTED 
                  
                  
  BINARY CARD NO. SCHAIN20    
      00574  0056 00  002000         RNT     CORE     
      00575  0020 00 0 00605         TRA     BJ+1     
      00576  0074 00 4 00003         TSX     $FSTATE,4
      00577  3 00000 0 01104         PTH     RESTOR+1 
      00600  3 00000 0 01105         PTH     RESTOR+2 
      00601  3 00010 0 01110         PTH     ARRAY,,8 
      00602  3 00000 0 00604         PTH     BJ 
      00603  0020 00 0 00607         TRA     BP 
      00604  0057 00  002000  BJ     RIR     CORE          NO FILE FOR CORE IMAGE   
      00605  0074 00 4 00013         TSX     $DELETE,4
      00606  0 00000 0 01074         PZE     RESUME+1      DELETE CHAIN CORE IMAGE  
                       00607  BP     SYN     *  
      00607  0054 00  000010         RFT     EF 
      00610  0020 00 0 00635         TRA     E  
      00611 -0500 00 0 01126         CAL     LCF
      00612  0602 00 0 01127         SLW     PCF           LOCAL COMFIL BECOMES PREVIOUS  
      00613                          SWUS    HCF
      00613 -0500 00 0 01125         CAL     HCF                                                              .001
      00614  0074 00 3 00717         TSX     SWCF,3                                                           .001
      00615  0057 00  000001         RIR     NDLOT    
      00616  0774 00 2 00002         AXT     FC,2     
      00617  0056 00  002000         RNT     CORE     
                  
  BINARY CARD NO. SCHAIN21    
      00620  0020 00 0 00230         TRA     BA            TO NEXT BATCH
      00621 -0634 00 2 00623         SXD     *+2,2    
      00622  0074 00 4 00021         TSX     $SETCLS,4
      00623  0 00000 0 01103         PZE     RESTOR,,**    RESTORE CORE IMAGE 
      00624 -0500 00 0 01104         CAL     RESTOR+1 
      00625  0602 00 0 01123         SLW     FAIL          CORE IMAGE FLAG    
1            SCHAIN  SETS AND EXECUTES A CHAIN OF COMMANDS.                      04/23/69 2323.0 PAGE 12    
                  
      00626  0057 00  002000         RIR     CORE     
      00627  1 00001 2 00230         TXI     BA,2,1        TO NEXT BATCH
                              *      WHEN END OF FILE 
      00630  0055 00  000011  EOF    SIR     EF+NDLOT 
      00631  0056 00  000100         RNT     COMSET   
      00632  0020 00 0 00635         TRA     E  
      00633  0054 00  000040         RFT     LKHED    
      00634  0020 00 0 00226         TRA     BQ            GO CHECK CORE IMAGE LEFT BY COMMAND  
                  
                  
                              *      RESTORE COMMAND LISTS AND COUNTERS 
                  
                       00635  E      SYN     *  
      00635  0774 00 1 00001         AXT     1,1
      00636  0774 00 2 01504         AXT     CBUF,2   
      00637  0634 00 2 00642  V      SXA     *+3,2    
      00640 -0634 00 1 00642         SXD     *+2,1    
      00641  0074 00 4 00021         TSX     $SETCLS,4
      00642  0 00000 0 00000         PZE     **,,**   
      00643  1 00024 2 00644         TXI     *+1,2,CL 
                  
  BINARY CARD NO. SCHAIN22    
      00644  1 00001 1 00645         TXI     *+1,1,1  
      00645 -3 00005 1 00637         TXL     V,1,CN   
      00646 -0500 00 0 01122         CAL     CLC
      00647  0074 00 4 00026         TSX     $SETCLC,4
      00650                          SWUS    LCF
      00650 -0500 00 0 01126         CAL     LCF                                                              .001
      00651  0074 00 3 00717         TSX     SWCF,3                                                           .001
      00652  0056 00  002000         RNT     CORE     
      00653  0020 00 0 00670         TRA     E1            NO CORE IMAGE LEFT 
      00654  0074 00 4 00013         TSX     $DELETE,4
      00655  0 00000 0 01074         PZE     RESUME+1      DELETE CHAIN SAVED FILE  
      00656 -0100 00 0 00667         TNZ     BR            ERROR  
      00657  0074 00 4 00027         TSX     $CHFILE,4
      00660  3 00000 0 01104         PTH     RESTOR+1 
      00661  3 00000 0 01105         PTH     RESTOR+2 
      00662  3 00000 0 01651         PTH     =1            TEMPORARY MODE     
      00663  3 00000 0 01074         PTH     RESUME+1 
      00664  3 00000 0 01075         PTH     RESUME+2 
      00665  3 00000 0 00667         PTH     BR            TO A LOWER NAME IN THE LIST    
      00666 -0500 00 0 01074         CAL     RESUME+1      OF TEMPORARY FILES 
      00667  0602 00 0 01123  BR     SLW     FAIL          SET ERROR CODE OR FILE NAME    
                       00670  E1     SYN     *  
                  
                  
                              *      END OF PROCESS   
                  
                       00670  OUT    SYN     *  
      00670                          RSTOR
                  
  BINARY CARD NO. SCHAIN23    
      00670  0441 00 0 01120         LDI     IND                                                              .001
      00671  0774 00 3 00000  X3     AXT     **,3                                                             .001
      00672  0774 00 5 00000  X5     AXT     **,5                                                             .001
      00673  0774 00 6 00000  X6     AXT     **,6                                                             .001
1            SCHAIN  SETS AND EXECUTES A CHAIN OF COMMANDS.                      04/23/69 2323.0 PAGE 13    
                  
      00674  0774 00 7 00000  X7     AXT     **,7                                                             .001
      00675 -0520 00 0 01121         NZT     XMOD                                                             .001
      00676 -0760 00 0 00016         EMTM                                                                     .001
      00677  0774 00 1 00000  X1     AXT     **,1                                                             .001
      00700  0774 00 2 00000  X2     AXT     **,2                                                             .001
      00701 -0534 00 4 00033         LXD     X4,4                                                             .001
      00702  0500 00 0 01123         CLA     FAIL     
      00703  0020 00 0 00000  AH     TRA     ** 
                  
      00704  0500 00 0 01651  ZZ     CLA     =1 
      00705  0601 00 0 01123         STO     FAIL     
      00706  0020 00 0 00670         TRA     E1 
                              *      SWUFD S/R.  CHECKS WHETHER A COMMAND MAY SWITCH U.F.D.     
      00707 -0500 00 0 01133  SWUFD  CAL     ARG
      00710  0774 00 3 00003         AXT     AQ-COMF,3
      00711 -0340 00 3 00760  AR     LAS     AQ,3          NEXT MIGHT SWITCH FILE DIRECTORY     
      00712  0020 00 0 00714         TRA     *+2
      00713  0020 00 4 00001         TRA     1,4           YES    
                  
  BINARY CARD NO. SCHAIN24    
      00714  2 00001 3 00711         TIX     AR,3,1   
      00715  0774 00 3 00000         AXT     ,3            NO     
      00716  0020 00 4 00001         TRA     1,4           RETURN WITH IX3 SETTING  
                  
                              *      SWCF S/R. SWITCHES TO SPECIFIED COMMON FILE    
      00717 -0340 00 0 01124  SWCF   LAS     CCF           IS IT NEW COMMON FILE    
      00720  0020 00 0 00722         TRA     *+2
      00721  0020 00 3 00001         TRA     1,3           YES. IGNORE CALL   
      00722  0602 00 0 01124         SLW     CCF           SAVE NEW COMMON FILE NO. 
      00723  0057 00  002000         RIR     CORE          COMFIL LEAVES NO CORE IMAGE    
      00724  0074 00 4 00031         TSX     $COMFIL,4
      00725  3 00000 0 00741         BRN     BUSY     
      00726  0020 00 3 00001         TRA     1,3
                              *      ERROR PROCEDURES 
      00727  0602 00 0 01040  ERROR  SLW     MES
      00730  0074 00 4 00014         TSX     $WRFLX,4 
      00731  0 00005 0 01040         PZE     MES,,5   
      00732  0020 00 0 00704         TRA     ZZ 
      00733 -0500 00 0 01157  BD     CAL     ARG1     
      00734  0602 00 0 01050         SLW     MES2     
      00735  0074 00 4 00014         TSX     $WRFLX,4 
      00736  0 00005 0 01050         PZE     MES2,,5       ILLEGAL COMMON FILE
      00737 -0500 00 0 01157         CAL     ARG1     
                  
  BINARY CARD NO. SCHAIN25    
      00740  0020 00 0 00705         TRA     ZZ+1     
      00741  0636 00 4 00754  BUSY   SCA     BF,4     
      00742  0602 00 0 01055         SLW     MES3     
      00743 -0600 00 0 01056         STQ     MES3+1   
      00744 -0500 00 0 01061         CAL     MES3+4   
      00745 -0320 00 0 01665         ANA     =O777777777700 
      00746 -0501 00 0 01124         ORA     CCF           SET COMFIL NO.     
      00747  0602 00 0 01061         SLW     MES3+4   
      00750  0074 00 4 00014         TSX     $WRFLX,4 
      00751  0 00012 0 01055         PZE     MES3,,10 
      00752  0074 00 4 00032         TSX     $DORMNT,4
1            SCHAIN  SETS AND EXECUTES A CHAIN OF COMMANDS.                      04/23/69 2323.0 PAGE 14    
                  
      00753 -0500 00 0 01124         CAL     CCF
      00754  0020 00 0 00000  BF     TRA     **            TRY AGAIN    
                              *      THESE COMMANDS MAY SWITCH TO ANOTHER U.F.D.    
                  
                  
      00755  234644263143     COMF   BCI     1,COMFIL 
      00756  512544215142            BCI     1,REMARK 
      00757  606060434627            BCI     1,   LOG 
                       00760  AQ     SYN     *  
                       00760  AV     SYN     *             THESE COMMANDS EXPECT A CORE IMAGE   
      00760  262147242227            BCI     1,FAPDBG 
      00761  462363472163            BCI     1,OCTPAT 
      00762  462363635121            BCI     1,OCTTRA 
      00763  604623634342            BCI     1, OCTLK 
                  
  BINARY CARD NO. SCHAIN26    
      00764  626346472163            BCI     1,STOPAT 
      00765  604721632330            BCI     1, PATCH 
      00766  606060635121            BCI     1,   TRA 
      00767  606060604744            BCI     1,    PM 
      00770  606060646225            BCI     1,   USE 
      00771  606263215163            BCI     1, START 
      00772  606062216525            BCI     1,  SAVE 
      00773  626351212325            BCI     1,STRACE 
                       00774  AW     SYN     *  
                       00774  AX     SYN     *             THESE COMMANDS LET A CORE IMAGE
      00774  262147242227            BCI     1,FAPDBG 
      00775  606043212524            BCI     1,  LAED 
      00776  606043462124            BCI     1,  LOAD 
      00777  604324212262            BCI     1, LDABS 
      01000  462363472163            BCI     1,OCTPAT 
      01001  462363635121            BCI     1,OCTTRA 
      01002  604623634342            BCI     1, OCTLK 
      01003  626346472163            BCI     1,STOPAT 
      01004  604721632330            BCI     1, PATCH 
      01005  606060635121            BCI     1,   TRA 
      01006  606060604744            BCI     1,    PM 
      01007  606060646225            BCI     1,   USE 
                  
  BINARY CARD NO. SCHAIN27    
      01010  606263215163            BCI     1, START 
      01011  512562634651            BCI     1,RESTOR 
      01012  512562644425            BCI     1,RESUME 
      01013  606060606051            BCI     1,     R 
      01014  606062216525            BCI     1,  SAVE 
      01015  606543462124            BCI     1, VLOAD 
      01016  452343462124            BCI     1,NCLOAD 
      01017  434621242746            BCI     1,LOADGO 
      01020  626351212325            BCI     1,STRACE 
      01021  516445234644            BCI     1,RUNCOM 
      01022  236325626301            BCI     1,CTEST1 
      01023  236325626302            BCI     1,CTEST2 
      01024  236325626303            BCI     1,CTEST3 
      01025  236325626304            BCI     1,CTEST4 
      01026  236325626305            BCI     1,CTEST5 
      01027  236325626306            BCI     1,CTEST6 
1            SCHAIN  SETS AND EXECUTES A CHAIN OF COMMANDS.                      04/23/69 2323.0 PAGE 15    
                  
      01030  236325626307            BCI     1,CTEST7 
      01031  236325626310            BCI     1,CTEST8 
      01032  236325626311            BCI     1,CTEST9 
                       01033  AY     SYN     *  
      01033  607445314334     NIL    BCI     1, (NIL) 
                  
  BINARY CARD NO. SCHAIN28    
      01034  607425452434     END    BCI     1, (END) 
      01035  602330213145     CHAIN  BCI     1, CHAIN 
      01036  333333000001     FIL1   BCI     2,...001 SAVED 
      01037  606221652524     
      01040  606060606060     MES    BCI     5,      ...ILLEGAL OCCURENCE     
      01041  333333314343     
      01042  252721436046     
      01043  232364512545     
      01044  232560606060     
      01045  604546602567     MES1   BCI     3, NO EXECUTION
      01046  252364633146     
      01047  456060606060     
      01050  234644444645     MES2   BCI     5,COMMON FILE        UNKNOWN     
      01051  602631432560     
      01052  606060606060     
      01053  606445424546     
      01054  664560606060     
      01055  606060606060     MES3   BCI ,             IS USING COMFIL 0, TYPE 'START' TO TRY AGAIN   
      01056  606060606060     
      01057  603162606462     
                  
  BINARY CARD NO. SCHAIN29    
      01060  314527602346     
      01061  442631436000     
      01062  736063704725     
      01063  601462632151     
      01064  631460634660     
      01065  635170602127     
      01066  213145606060     
      01067  606062216525     SAVE   VFD     H36/SAVE,36/,H36/T,O36//   
      01070  000000000000     
      01071  606060606063     
      01072  777777777777     
      01073  512562644425     RESUME VFD     H36/RESUME,36/,H36/SAVED,O36//   
      01074  000000000000     
      01075  606221652524     
      01076  777777777777     
      01077  606062216525     SAVE1  VFD     H36/SAVE,36/,H36/T,O36//   
      01100  000000000000     
      01101  606060606063     
      01102  777777777777     
      01103  512562634651     RESTOR VFD     H36/RESTOR,36/,H36/SAVED,O36//   
                  
  BINARY CARD NO. SCHAIN30    
      01104  000000000000     
      01105  606221652524     
      01106  777777777777     
                       00002  FC     EQU     2             FIRST COMMAND LIST AVAILABLE FOR USER'S    
                       00005  CN     EQU     5             NUMBER OF COMMAND LISTS  
1            SCHAIN  SETS AND EXECUTES A CHAIN OF COMMANDS.                      04/23/69 2323.0 PAGE 16    
                  
                       00024  CL     EQU     20            COMMAND BUFFER LENGTH    
                       00026  RL     EQU     22            BCD RECORD BUFFER LENGTH 
                      000001  NDLOT  BOOL    1             ON = CLOSE SUB-CHAIN     
                      000002  TCHAIN BOOL    2             ON = 'CHAIN' OCCURRED    
                      000004  ARGLIS BOOL    4             ON = WHILE PROCESSING 'CHAIN' PSEUDO 
                      000010  EF     BOOL    10            ON = END FILE OCCURED    
                      000020  PRINT  BOOL    20            ON = WHILE PRINT ON-LINE 
                      000040  LKHED  BOOL    40            ON = NEXT COMMAND TO BE READ   
                      000100  COMSET BOOL    100           ON = SOME EXECUTABLE COMMAND READ    
                      000200  COMSW  BOOL    200           ON = NEXT COMMAND MAY SWITCH DIRECTORY     
                      000400  COPY   BOOL    400           ON = NEXT COMMAND SWITCHES IMPLICITLY UFD  
                      001000  NAM    BOOL    1000          ON = FILE NAME ASSIGNED TO 'SCHAIN'  
                      002000  CORE   BOOL    2000          ON = CORE IMAGE TO BE SAVED    
                      004000  NAM1   BOOL    4000          ON = FILE NAME ASSIGNED TO CORE IMAGE
                      010000  FILOST BOOL    10000         ON = SOURCE FILE STATUS LOST   
      01107 +000000000660     BUFSIZ DEC     432
      01110                   ARRAY  BSS     8  
      01120                   IND    BSS     1             SAVE INDICATORS    
      01121                   XMOD   BSS     1             0 FOR 3 IX'S MODE. 77777 FOR 7 IX'S MODE   
      01122                   CLC    BSS     1             SAVE COMMAND COUNTERS    
      01123                   FAIL   BSS     1             ZERO IF NO ERROR   
      01124                   CCF    BSS     1             CURRENT COMMON FILE
      01125                   HCF    BSS     1             HOME COMMON FILE   
      01126                   LCF    BSS     1             LOCAL COMMON FILE, IN THE SUBCHAIN   
      01127                   PCF    BSS     1             PREVIOUS LOCAL COMMON FILE     
      01130                   BK     BSS     3             FILE NAMES   
                       01131  FIL    SYN     BK+1     
      01133                   ARG    BSS     CL            COMMAND JUST READ  
      01157                   ARG1   BSS     CL            COMMAND TO BE LOADED     
      01203                   ARLIS  BSS     CL-1          CHAIN PSEUDO COMMAND     
      01226                   ACTARG BSS     CL-1          ACTUAL VALUES OF ARGUMENTS     
      01251                   AG     BSS     RL            READ INPUT BUFFER  
      01277                   K      BSS     6*RL+1        UNPACKED LINE BUFFER     
      01504                   CBUF   BSS     CL*CN         SAVE COMMAND LISTS 
                       01037  SAVED  SYN     FIL1+1   
                       01072  FENCE  SYN     SAVE+3   
                                     END  
                  
        LITERALS  
                  
  BINARY CARD NO. SCHAIN31    
      01650  000000000000     
      01651  000000000001     
      01652  000000000002     
      01653  000000000006     
      01654  000000000014     
      01655  000000000026     
      01656  400000000000     
      01657  530000000000     
      01660  540000000000     
      01661  570000000000     
      01662  600000000000     
      01663  606060606060     
      01664  606060606066     
      01665  777777777700     
1            SCHAIN  SETS AND EXECUTES A CHAIN OF COMMANDS.                      04/23/69 2323.0 PAGE 1     
                        POST PROCESSOR ASSEMBLY DATA  
                  
       1666 IS THE FIRST LOCATION NOT USED BY THIS PROGRAM  
                  
0REFERENCES TO DEFINED SYMBOLS      
        157      A   147,  152,  157
        162      B   162,  212,  235,  311,  326,  353,  405,  425,  431
        265      C   253,  255,  260
        274      D   264
        635      E   610,  632,  635
        236      F   215,  236
        256      G   250,  272
        307      H   274,  303
        444      J   227,  444
       1277      K   121,  126,  207,  210,  213,  246,  256
        311      L   245,  307
        321      M   324
        324      N   316
        327      P   315,  327
        337      Q   344
        335      R   350
        344      S   317
        545      T   515,  545
        136      U   144
        637      V   645
        464      W   436,  441,  442,  443,  451
        462      X   453,  457,  461
        510      Y   502,  510
        551      Z   513,  551
        272     AA   203
        115     AB    77,  131
        120     AC   116
        132     AD   127
        131     AE   114,  127
        432     AF   360,  432
       1251     AG   164,  206,  234
        703     AH    76
        304     AJ   302
        121     AK   130
        424     AL   415,  420
        426     AM   407
        430     AN   412
        473     AP   470,  473
        760     AQ   364,  433,  710,  711,  760
        711     AR   714
        442     AS   434
        440     AT   433
        760     AV   454,  760
        774     AW   454,  455,  774
        774     AX   444,  774
       1033     AY   444,  445, 1033
        452     AZ   447,  452
        230     BA   230,  620,  627
        232     BB   217,  221,  223
        367     BC   231,  367,  472
        733     BD      
1            SCHAIN  SETS AND EXECUTES A CHAIN OF COMMANDS.                      04/23/69 2323.0 PAGE 2     
                        POST PROCESSOR ASSEMBLY DATA  
                  
        162     BE   162
        754     BF   741
        372     BG   403
        604     BJ   575,  602
       1130     BK  1133
        165     BL    55
        403     BM   375
        366     BN   362,  364
        607     BP   603,  607
        226     BQ   634
        667     BR   656,  665
        174     BS   170
        127     BT   124
        346     BU   341
         24     CL    57,   61,  112,  142,  236,  240,  307,  370,  371,  372,  402,  530,  643, 1107, 1133, 1157, 1203
                    1226, 1504
          5     CN   144,  442,  443,  470,  645, 1107, 1504
        670     E1   653,  670,  706
         10     EF   452,  607,  630, 1107
          2     FC   161,  221,  616, 1107
        245     GG   204,  254,  310
         26     RL   164,  206,  207, 1107, 1251, 1277
        350     S1   327,  413
        343     SS   132,  332,  340,  342
        351     W1   331,  333,  351
        677     X1    36
        700     X2    37
        671     X3    40,   47
         33     X4    35,   41,   64,   74,  701
        672     X5    50
        673     X6    51
        674     X7    52
        704     ZZ   104,  533,  537,  732,  740
       1133    ARG   240,  266,  270,  276,  313,  321,  335,  347,  351,  354,  372,  707
       1124    CCF    70,  717,  722,  746,  753
       1122    CLC   146,  646
       1034    END   355,  376
        630    EOF   160,  356
       1131    FIL    65,  101,  102,  105,  106,  110,  163, 1133
       1125    HCF    67,  613
       1120    IND    35,  670
       1126    LCF    72,  414,  423,  426,  435,  473,  475,  560,  611,  650
       1040    MES   727,  731
       1000    NAM   500,  501,  505, 1107
       1033    NIL   352,  373
        670    OUT   156,  670
       1127    PCF    71,  476,  612
         20    ZEL   421
       1157   ARG1    61,  226,  402,  410,  416,  422,  466,  530,  733,  737
        741   BUSY   725
       1504   CBUF   135,  636
          2   COLT    73
        755   COMF   364,  411,  433,  710
        400   COPY   365,  406,  427,  437, 1107
       2000   CORE   462,  512,  574,  604,  617,  626,  652,  723, 1107
1            SCHAIN  SETS AND EXECUTES A CHAIN OF COMMANDS.                      04/23/69 2323.0 PAGE 3     
                        POST PROCESSOR ASSEMBLY DATA  
                  
        660   DBUF    35
       1123   FAIL    54,  153,  557,  571,  625,  667,  702,  705
       1036   FIL1   151, 1650
          0   GNAM    63
       1045   MES1   155
       1050   MES2   734,  736
       1055   MES3   742,  743,  744,  747,  751
       4000   NAM1   500,  514,  542, 1107
         23   OPEN   516
       1067   SAVE   506,  511, 1650
          4   SEEK   107
        717   SWCF   474,  614,  651
       1121   XMOD    44,   46,  675
       1203  ARLIS   322,  337
       1110  ARRAY   103,  601
       1035  CHAIN   300
         25  CLOSE   534
        200  COMSW    56,  363,  404,  430,  440, 1107
        727  ERROR   305
       1072  FENCE   312,  367,  417, 1650
         22  GTNAM   503,  540
        571  ..002   561,  571
         40  LKHED   220,  225,  357,  366,  424,  633, 1107
          5  MOVE1   111
          6  MOVE2   117
         10  MOVE3   133
          1  NDLOT   224,  440,  463,  471,  615,  630, 1107
         20  PRINT   222,  224,  230,  232,  275,  452, 1107
          7  RJUST   125
       1077  SAVE1   543,  547
       1037  SAVED   504,  541, 1650
        707  SWUFD   361,  432
         16  VREAD   162
         14  WRFLX   154,  233,  730,  735,  750
       1226 ACTARG   112,  346
          4 ARGLIS   306,  314,  325, 1107
       1107 BUFSIZ      
         27 CHFILE   562,  657
         30 CHNCOM   572
         31 COMFIL   724
        100 COMSET   216,  304,  366,  631, 1107
         13 DELETE   150,  605,  654
         32 DORMNT   752
      10000 FILOST  1107
          3 FSTATE   100,  576
          1 GETCFN    66
         12 GETCLC   145
         11 GETCLS   140
       1103 RESTOR   544,  563,  564,  577,  600,  623,  624,  660,  661
       1073 RESUME   507,  520,  521,  525,  526,  535,  536,  553,  606,  655,  663,  664,  666
         35 SCHAIN     0,   35
         26 SETCLC   556,  647
         21 SETCLS   465,  510,  546,  552,  622,  641
         15 SETEOF   157
          2 TCHAIN   277,  306,  330, 1107
1            SCHAIN  SETS AND EXECUTES A CHAIN OF COMMANDS.                      04/23/69 2323.0 PAGE 4     
                        POST PROCESSOR ASSEMBLY DATA  
                  
         17 UNPAKL   205
         24 WRFILE   524
                  
0 NO ERROR IN ABOVE ASSEMBLY. 




  SETC   BCD 05/29/67 0008.3     219         00000    
1            FAP                                                                                 PAGE 1     
                  
                              *      SETCLC, GETCLC.  DUMMIES FOR TSS SUPERVISOR ENTRIES. 
                              *      AUGUST 64             LOUIS POUZIN 
                  
                  
  BINARY CARD NO. TSEN1800    
                       00000         ENTRY   SETCLC   
                       00001         ENTRY   SETCLS   
                  
  BINARY CARD NO. TSEN1801    
      00000  0101 00 0 00002  SETCLC TIA     =HSETCLC 
      00001  0101 00 0 00003  SETCLS TIA     =HSETCLS 
                                     END  
                  
        LITERALS  
      00002  622563234323     
      00003  622563234362     
1            FAP                                                                                 PAGE 1     
                        POST PROCESSOR ASSEMBLY DATA  
                  
          4 IS THE FIRST LOCATION NOT USED BY THIS PROGRAM  
                  
0REFERENCES TO DEFINED SYMBOLS      
          0 SETCLC     0
          1 SETCLS     0
                  
0 NO ERROR IN ABOVE ASSEMBLY. 




  SETE   BCD 05/29/67 0008.3     977         00000    
1            FAP                                                                                 PAGE 1     
                  
                              *    SETERR PROVIDES THE MEANS OF SETTING AN ERROR RETURN   
                              *    FROM SNAP WHICH IS CALLED BY SOME ERROR FOUND BY 
                              *    THE DISK ROUTINES. 
                              *        EXECUTE SETERR(RETURN,ERROR)     
                              *        CALL SETERR(N,ERROR) 
                              *        TSX    SETERR,4
                              *        PZE    RETURN  
                              *        PZE    ERROR   
                              *    ERROR WILL CONTAIN THE LOGICAL AC(ERROR CODE).   
                              *    RETURN IS THE ERROR RETURN WITH NO PRINT OUT FROM SNAP.
                              *    IF ONLY ONE ARGUMENT, ASSUMED TO BE RETURN.
                              *    NO ARGUMENT RESETS SNAP TO ITS ORIGINAL STATE.   
                  
  BINARY CARD NO. SETERR00    
                       00005         ENTRY   SETERR   
                  
        TRANSFER VECTOR 
                  
  BINARY CARD NO. SETERR01    
      00000  624521476060     SNAP  
      00001  234643636060     COLT  
      00002  665126436760     WRFLX 
                  
            LINKAGE DIRECTOR  
      00003  000000000000     
      00004  622563255151     
                  
      00005 -0634 00 4 00003  SETERR SXD     SETXT,4  
                       00003  SETXT  EQU     SETERR-2 
      00006  0500 00 0 00000         CLA     $SNAP    
      00007  0361 00 0 00065         ACL     =3 
      00010  0361 00 0 00064         ACL     =1            WILL MODIFY FOURTH AND FIFTH   
      00011  0621 00 0 00060         STA     SETCOD   
      00012  0361 00 0 00064         ACL     =1 
      00013  0621 00 0 00057         STA     SETRET   
      00014  0074 00 4 00001         TSX     $COLT,4       HOW MANY ARGS
      00015  0 00000 0 00003         PZE     SETXT    
      00016  0636 00 4 00027         SCA     SETFIN,4      FINAL RETURN 
      00017 -0734 00 4 00000         PDX     0,4
      00020  3 00002 4 00044         TXH     ERR2,4,2      TOO MANY ARGS
      00021  0020 00 4 00024         TRA     SETTRA,4      HOW MANY ARGS
      00022  0020 00 0 00037         TRA     SET2     
      00023  0020 00 0 00030         TRA     SET1     
                  
  BINARY CARD NO. SETERR02    
      00024  0560 00 0 00061  SETTRA LDQ     AXT           NOP TO RESTORE SNAP
      00025 -0600 60 0 00057         STQ*    SETRET   
      00026 -0600 60 0 00060         STQ*    SETCOD   
      00027  0020 00 0 00000  SETFIN TRA     ** 
      00030 -0534 00 4 00003  SET1   LXD     SETXT,4       ONE ARG WILL BE TRA RETURN     
      00031  0560 00 0 00061         LDQ     AXT           AND NOP TO STORE ERR CODE
      00032  0500 00 4 00001         CLA     1,4
      00033  0621 00 0 00062         STA     TRA
      00034  0500 00 0 00062         CLA     TRA
      00035  0601 60 0 00057         STO*    SETRET   
      00036  0020 00 0 00026         TRA     SETFIN-1 
1            FAP                                                                                 PAGE 2     
                  
      00037 -0534 00 4 00003  SET2   LXD     SETXT,4       TWO ARGS WILL BE TRA RETURN    
      00040  0500 00 4 00002         CLA     2,4           AND SLW ERROR CODE 
      00041  0621 00 0 00063         STA     SLW
      00042  0560 00 0 00063         LDQ     SLW
      00043  0020 00 0 00032         TRA     SET1+2   
      00044  0074 00 4 00002  ERR2   TSX     $WRFLX,4 
      00045  0 00010 0 00047         PZE     MSSG2,,8 
      00046  0020 00 0 00037         TRA     SET2     
      00047  634646604421     MSSG2  BCI     8,TOO MANY ARGUMENTS TO SETERR. USED FIRST TWO.    
                  
  BINARY CARD NO. SETERR03    
      00050  457060215127     
      00051  644425456362     
      00052  606346606225     
      00053  632551513360     
      00054  646225246026     
      00055  315162636063     
      00056  664633606060     
      00057  0 00000 0 00000  SETRET PZE  
      00060  0 00000 0 00000  SETCOD PZE  
 AT   00061  0774 00 0 00000  AXT    AXT  
 A    00062  0020 00 0 00000  TRA    TRA  
 A    00063  0602 00 0 00000  SLW    SLW  
                                     END  
                  
        LITERALS  
      00064  000000000001     
      00065  000000000003     
1            FAP                                                                                 PAGE 1     
                        POST PROCESSOR ASSEMBLY DATA  
                  
         66 IS THE FIRST LOCATION NOT USED BY THIS PROGRAM  
                  
0REFERENCES TO DEFINED SYMBOLS      
         61    AXT    24,   31
         63    SLW    41,   42
         62    TRA    33,   34
          1   COLT    14
         44   ERR2    20
         30   SET1    23,   43
         37   SET2    22,   46
          0   SNAP     6
         47  MSSG2    45
          3  SETXT     5,    6,   15,   30,   37
          2  WRFLX    44
         60 SETCOD    11,   26
          5 SETERR     0,    6
         27 SETFIN    16,   36
         57 SETRET    13,   25,   35
         24 SETTRA    21
                  
0 NO ERROR IN ABOVE ASSEMBLY. 




  SETF   BCD 05/29/67 0008.3     538         00000    
1            FAP                                                                                 PAGE 1     
                  
                              *      SETFMT * SETNAM * FOREGROUND LIBRARY * MOD 13A * JUN 63 *  
                                             SET A POINTER TO FORMAT BEGINNING, OR FIRST NAME   
                                             FOR FORTRAN OR MAD CALLS TO DISK I/O SUBROUTINES   
                                             CALL SETFMT(FMT,NH(....))  
                                             CALL SETNAM(NAME,12H NAME1 NAME2)
                                             EXECUTE SETFMT.(FMT,$(....)$)    
                                             EXECUTE SETNAM.(NAME,$ NAME1 NAME2$)   
                  
                                             SETFMT MAY BE USED IN FORTRAN TO PRESET FORMATS    
                                             VALUES INSTEAD WRITING IN THE ARGUMENT LIST OF A CALL    
                                             STATEMENT. SETFMT CREATES A SINGLE WORD POINTER IN WHICH 
                                             IS STORED THE FORMAT LIST ADDRESS. PREFIX IS THX OR TSX  
                                             ACCORDING TO THE COMPILER USED, MADTRAN + MAD, OR  
                                             FORTRAN + FAP. A MARKER (77) IS SET BETWEEN PREFIX 
                                             AND ADDRESS, SO AS TO PREVENT CONFUSION WITH THE FORMAT  
                                             ITSELF, WHILE USING BY OTHER PROGRAMS AS DREAD AND 
                                             DWRITE. SETFMT MAY BE USED IN MAD AND FAP, ALTHOUGH
                                             THERE ARE SOME SHORTER WAYS TO PRESET THE FORMAT LIST.   
                  
  BINARY CARD NO. SETFMT01    
                       00002         ENTRY   SETFMT   
                       00002         ENTRY   SETNAM   
                  
            LINKAGE DIRECTOR  
                  
  BINARY CARD NO. SETFMT02    
      00000  000000000000     
      00001  622563264463     
                  
      00002 -0500 00 4 00002  SETFMT CAL     2,4           PICK-UP FIRST WORD ADDRESS     
      00003 -0501 00 0 00006         ORA     =O77000000    SET POINTER FLAG   
      00004  0602 60 4 00001         SLW*    1,4           STORE IN FMT OR IN NAME  
      00005  0020 00 4 00003         TRA     3,4
                       00002  SETNAM SYN     SETFMT   
                                     END  
                  
        LITERALS  
      00006  000077000000     
1            FAP                                                                                 PAGE 1     
                        POST PROCESSOR ASSEMBLY DATA  
                  
          7 IS THE FIRST LOCATION NOT USED BY THIS PROGRAM  
                  
0REFERENCES TO DEFINED SYMBOLS      
          2 SETFMT     0,    6
          2 SETNAM     0,    6
                  
0 NO ERROR IN ABOVE ASSEMBLY. 




  SETP   BCD 05/29/67 0008.3     135         00000    
1                                                                                                PAGE 1     
                  
                       00000         ENTRY   SETPRI   
      00000  0101 00 0 00001  SETPRI TIA     =HSETPRI 
                                     END  
                  
        LITERALS  
      00001  622563475131     
1                                                                                                PAGE 1     
                        POST PROCESSOR ASSEMBLY DATA  
                  
          2 IS THE FIRST LOCATION NOT USED BY THIS PROGRAM  
                  
0REFERENCES TO DEFINED SYMBOLS      
          0 SETPRI     0
                  
0 NO ERROR IN ABOVE ASSEMBLY. 




  SETU   BCD 05/29/67 0008.3     265         00000    
1            FAP                                                                                 PAGE 1     
                  
                              *SETUP SETUP FOR MOD 14 CTSS  *  LP - JULY 63  *
                       00004         ENTRY   .SETUP   
                  
        TRANSFER VECTOR 
      00000  742647633460     (FPT) 
      00001  742526634434     (EFTM)
                  
            LINKAGE DIRECTOR  
      00002  000000000000     
      00003  336225636447     
                  
      00004 -0634 00 4 00002  .SETUP SXD     *-2,4    
      00005 -0760 00 0 00016         EMTM 
      00006 -0500 00 0 00000         CAL     $(FPT)        SET UP LOCATION 8  
      00007  0602 00 0 00010         SLW     8             TO TRAP TO (FPT)   
      00010  0074 00 4 00001         TSX     $(EFTM),4     ENTER FL. TR. MODE 
      00011 -0534 00 4 00002         LXD     .SETUP-2,4     
      00012  0020 00 4 00001         TRA     1,4
                                     END  
1            FAP                                                                                 PAGE 1     
                        POST PROCESSOR ASSEMBLY DATA  
                  
         13 IS THE FIRST LOCATION NOT USED BY THIS PROGRAM  
                  
0REFERENCES TO DEFINED SYMBOLS      
          0  (FPT)     6
          4 .SETUP     0,   11
          1 (EFTM)    10
                  
0 NO ERROR IN ABOVE ASSEMBLY. 




  SIMC   BCD 05/29/67 0008.3     525         00000    
1           FAP                                                                                  PAGE 1     
                  
                              *      GENERATE CALLING SEQUENCE FOR XSIMEQ     
                       00003         ENTRY SIMCS
                  
        TRANSFER VECTOR 
      00000  676231442550     XSIMEQ
                  
            LINKAGE DIRECTOR  
      00001  000000000000     
      00002  623144236260     
                  
      00003  0634 00 4 00036  SIMCS  SXA     XR4,4    
      00004  0500 60 4 00003         CLA*    3,4
      00005  0601 00 0 77775         STO     COMMON-2 
      00006  0500 00 4 00004         CLA     4,4
      00007  0402 00 0 00041         SUB     =1 
      00010  0621 00 0 00024         STA     ARG4     
      00011  0500 00 4 00005         CLA     5,4
      00012  0402 00 0 00041         SUB     =1 
      00013  0621 00 0 00026         STA     ARG5     
      00014  0500 00 4 00006         CLA     6,4
      00015  0621 00 0 00030         STA     ARG6     
      00016  0500 00 4 00007         CLA     7,4
      00017  0402 00 0 00041         SUB     =1 
      00020  0621 00 0 00032         STA     ARG7     
      00021  0500 60 4 00001         CLA*    1,4
      00022  0560 60 4 00002         LDQ*    2,4
      00023  0020 00 0 00035         TRA     CALL     
      00024  0 00000 0 00000  ARG4   PZE     ** 
      00025  0420 00 0 00000         HPR  
      00026  0 00000 0 00000  ARG5   PZE     ** 
      00027  0420 00 0 00000         HPR  
      00030  0 00000 0 00000  ARG6   PZE     ** 
      00031  0420 00 0 00000         HPR  
      00032  0 00000 0 00000  ARG7   PZE     ** 
      00033  0420 00 0 00000         HPR  
      00034  0420 00 0 00000         HPR  
      00035  0074 00 4 00000  CALL   TSX     $XSIMEQ,4
      00036  0774 00 4 00000  XR4    AXT     **,4     
      00037  0601 60 4 00010         STO*    8,4
      00040  0020 00 4 00011         TRA     9,4
                       77777         COMMON  -206     
                       77777  COMMON COMMON  1  
                                     END  
                  
        LITERALS  
      00041  000000000001     
1           FAP                                                                                  PAGE 1     
                        POST PROCESSOR ASSEMBLY DATA  
                  
       77776 IS THE LAST LOCATION NOT USED BY THIS PROGRAM  
         42 IS THE FIRST LOCATION NOT USED BY THIS PROGRAM  
                  
0REFERENCES TO DEFINED SYMBOLS      
         36    XR4     3
         24   ARG4    10
         26   ARG5    13
         30   ARG6    15
         32   ARG7    20
         35   CALL    23
          3  SIMCS     0
      77777 COMMON     5,   41
          0 XSIMEQ    35
                  
0 NO ERROR IN ABOVE ASSEMBLY. 




  SLEE   BCD 05/29/67 0008.3     135         00000    
1       TSS ENTRIES FOREGROUND LIBRARY L. P.    JULY 64                                          PAGE 1     
                  
                       00000         ENTRY   SLEEP    
      00000  0101 00 0 00001  SLEEP  TIA     =HSLEEP  
                                     END  
                  
        LITERALS  
      00001  624325254760     
1       TSS ENTRIES FOREGROUND LIBRARY L. P.    JULY 64                                          PAGE 1     
                        POST PROCESSOR ASSEMBLY DATA  
                  
          2 IS THE FIRST LOCATION NOT USED BY THIS PROGRAM  
                  
0REFERENCES TO DEFINED SYMBOLS      
          0  SLEEP     0
                  
0 NO ERROR IN ABOVE ASSEMBLY. 




  SLI0   BCD 05/29/67 0008.3     556         00000    
1            FAP                                                                                 PAGE 1     
                  
                              *      32K 709/7090 FORTRAN LIBRARY      9SLI   
                              *      32K 709/7090 FORTRAN LIBRARY 
1            FAP                                                                                 PAGE 2     
                           SHORT LIST INPUT / 9SLI                                  
                  
                              *           SHORT LIST INPUT         LINKAGE COMPILED BY I/O TRANSLATOR.
                              *     
                              *      TSX  (SLI),4                  FOR INPUT OF NON-SUBSCRIPTED LIST. 
                              *      PZE  SYMBOL+1                 LOCATION OF THE ARRAY +1.    
                              *      PZE  N                        NUMBER OF ELEMENTS.    
                              *     
                  
  BINARY CARD NO. SLI00000    
                       00002         ENTRY   (SLI)    
                                          . . . . . . . . . . . . . . . . . . . . . . . . . . . . . . 
                  
            LINKAGE DIRECTOR  
                  
  BINARY CARD NO. SLI00001    
      00000  000000000000     
      00001  746243313460     
                  
      00002  0634 00 4 00015   (SLI) SXA  SLIX,4                   SAVE RETURN INDEX.     
      00003 -0500 00 4 00001         CAL  1,4                      INITIALIZE 
      00004  0621 00 0 00012         STA  *+6                      LDQ ADDRESS.     
      00005 -0500 00 4 00002         CAL  2,4                      INITIALIZE 
      00006  0734 00 4 00000         PAX  ,4                       TXL  
      00007 -0634 00 4 00014         SXD  *+5,4                    DECREMENT. 
      00010  0774 00 4 00001         AXT  1,4                      INITIALIZE XR4.  
      00011 -1 00000 0 00000         STR                         * TRAP TO (IOH) OR (IOB).
      00012 -0600 00 4 00000         STQ  ..,4                     STORE ELEMENT.   
      00013  1 00001 4 00014         TXI  *+1,4,1                  MOVE DOWNWARDS   
      00014 -3 00000 4 00011         TXL  *-3,4,..                 THROUGH ARRAY.   
      00015  0774 00 4 00000   SLIX  AXT  ..,4                     RESTORE RETURN INDEX.  
      00016  0020 00 4 00003         TRA  3,4                    * EXIT TO MAIN PROGRAM.  
                                          . . . . . . . . . . . . . . . . . . . . . . . . . . . . . . 
                       00000    ..   EQU  0     
                                     END  
1            FAP                                                                                 PAGE 1     
                        POST PROCESSOR ASSEMBLY DATA  
                  
         17 IS THE FIRST LOCATION NOT USED BY THIS PROGRAM  
                  
0REFERENCES TO DEFINED SYMBOLS      
          0     ..    12,   14,   15,   17
         15   SLIX     2
          2  (SLI)     0
                  
0 NO ERROR IN ABOVE ASSEMBLY. 




  SLO0   BCD 05/29/67 0008.3     556         00000    
1            FAP                                                                                 PAGE 1     
                  
                              *      32K 709/7090 FORTRAN LIBRARY      9SLO   
                              *      32K 709/7090 FORTRAN LIBRARY 
1            FAP                                                                                 PAGE 2     
                           SHORT LIST OUTPUT / 9SLO                                 
                  
                              *           SHORT LIST OUTPUT        LINKAGE COMPILED BY I/O TRANSLATOR.
                              *     
                              *      TSX  (SLO),4                  FOR OUTPUT OF NON-SUBSCRIPTED LIST.
                              *      PZE  SYMBOL+1                 LOCATION OF THE ARRAY +1.    
                              *      PZE  N                        NUMBER OF ELEMENTS.    
                              *     
                  
  BINARY CARD NO. SLO00000    
                       00002         ENTRY   (SLO)    
                                          . . . . . . . . . . . . . . . . . . . . . . . . . . . . . . 
                  
            LINKAGE DIRECTOR  
                  
  BINARY CARD NO. SLO00001    
      00000  000000000000     
      00001  746243463460     
                  
      00002  0634 00 4 00015   (SLO) SXA  SLOX,4                   SAVE RETURN INDEX.     
      00003 -0500 00 4 00001         CAL  1,4                      INITIALIZE 
      00004  0621 00 0 00011         STA  *+5                      LDQ ADDRESS.     
      00005 -0500 00 4 00002         CAL  2,4                      INITIALIZE 
      00006  0734 00 4 00000         PAX  ,4                       TXL  
      00007 -0634 00 4 00014         SXD  *+5,4                    DECREMENT. 
      00010  0774 00 4 00001         AXT  1,4                      INITIALIZE XR4.  
      00011  0560 00 4 00000         LDQ  ..,4                     PICKUP ELEMENT.  
      00012 -1 00000 0 00000         STR                         * TRAP TO (IOH) OR (IOB).
      00013  1 00001 4 00014         TXI  *+1,4,1                  MOVE DOWNWARDS   
      00014 -3 00000 4 00011         TXL  *-3,4,..                 THROUGH ARRAY.   
      00015  0774 00 4 00000   SLOX  AXT  ..,4                     RESTORE RETURN INDEX.  
      00016  0020 00 4 00003         TRA  3,4                    * EXIT TO MAIN PROGRAM.  
                                          . . . . . . . . . . . . . . . . . . . . . . . . . . . . . . 
                       00000    ..   EQU  0     
                                     END  
1            FAP                                                                                 PAGE 1     
                        POST PROCESSOR ASSEMBLY DATA  
                  
         17 IS THE FIRST LOCATION NOT USED BY THIS PROGRAM  
                  
0REFERENCES TO DEFINED SYMBOLS      
          0     ..    11,   14,   15,   17
         15   SLOX     2
          2  (SLO)     0
                  
0 NO ERROR IN ABOVE ASSEMBLY. 




  SLOC   BCD 05/04/68 2239.3     285         00000    
1       SLOC - MAD CALL TO SETLOC.                                                               PAGE 1     
                  
                              *  REWRITTEN TO USE AN EXTERNAL CALL TO SETLOC  ROGER ROACH 2/21/68     
                              *  CALLING SEQUENCE -   
                              *       SLOC.(WORD,LOC) 
                              *     
                       00003         ENTRY   SLOC     
                  
        TRANSFER VECTOR 
      00000  622563434623     SETLOC
                  
            LINKAGE DIRECTOR  
      00001  000000000000     
      00002  624346236060     
                  
      00003 -0634 00 4 00001  SLOC   SXD     SLOC-2,4 
      00004 -0500 60 4 00002         CAL*    2,4
      00005  0621 00 0 00010         STA     A  
      00006 -0500 60 4 00001         CAL*    1,4
      00007  0074 00 4 00000         TSX     $SETLOC,4
      00010  0 00000 0 00000  A      PZE     ** 
      00011 -0534 00 4 00001         LXD     SLOC-2,4 
      00012  0020 00 4 00003         TRA     3,4
                                     END  
1       SLOC - MAD CALL TO SETLOC.                                                               PAGE 1     
                        POST PROCESSOR ASSEMBLY DATA  
                  
         13 IS THE FIRST LOCATION NOT USED BY THIS PROGRAM  
                  
0REFERENCES TO DEFINED SYMBOLS      
         10      A     5
          3   SLOC     0,    3,   11
          0 SETLOC     7
                  
0 NO ERROR IN ABOVE ASSEMBLY. 




  SNAP   BCD 12/14/70 1743.7     658         00000    
1      M1416 3845  PETER R. BOS ..... REJUVENATED SNAP FOR LIBRARY .......       11/30/70 1321.3 PAGE 1     
                  
                                     PCC     ON 
                       00006         ENTRY   SNAP     
                                     LBL     SNAP,X   
                                     PCC     OFF
                  
                                     EXTERN  PRDIAG,OCABC,WRFLX,RECOUP  
                  
                  
        TRANSFER VECTOR 
                  
  BINARY CARD NO. SNAP0001    
      00000  475124312127     PRDIAG
      00001  462321222360     OCABC 
      00002  665126436760     WRFLX 
      00003  512523466447     RECOUP
                  
        LINKAGE DIRECTOR
      00004  000000000000     
      00005  624521476060     
                  
      00006 -0634 00 4 00004  SNAP   SXD     *-2,4         SAVE X4 IN (UGH) LINKAGE DIRECTOR    
      00007  0636 00 4 00040         SCA     T,4           .. FOR CONVERSION ALSO   
      00010  0604 00 0 00041         STI     IND           SAVE SI
      00011  0602 00 0 00042         SLW     AC            AND 'ERROR CODE'   
      00012  0774 00 0 00000         AXT     0,0           SNAP+4 PATCHED BY SETERR 
      00013  0774 00 0 00000         AXT     0,0           SNAP+5 
      00014  0074 00 4 00000         TSX     PRDIAG,4      PRINT FILE DIAGNOSTIC (IF ANY) 
      00015  0074 00 4 00001         TSX     OCABC,4       CONVERT CALLING LOC
      00016  3 00000 0 00040         PAR     T             ..     
      00017  0601 00 0 00034         STO     LOC           ..     
      00020  0074 00 4 00002         TSX     WRFLX,4       PRINT MESSAGE
      00021  3 00011 0 00027         PAR     M,,ML         ..     
      00022  0074 00 4 00003         TSX     RECOUP,4      ONWARD...    
      00023  3 00000 0 00042         PAR     AC            POSSIBLE ERROR CODE
                  
  BINARY CARD NO. SNAP0002    
      00024  3 00000 0 00004         PAR     SNAP-2        LINKAGE DIRECTOR   
      00025  3 00000 0 00041         PAR     IND           SI     
      00026  0020 00 0 00022         TRA     *-4           SHOULD NOT RETURN  
                  
      00027  606245214760     M      BCI     / SNAP CALLED FROM ABSOLUTE LOC/ 
      00030  232143432524     
      00031  602651464460     
      00032  212262464364     
      00033  632560434623     
      00034  600000000000     LOC    BCI     / 00000. RECOUP CALLED./   
      00035  336051252346     
      00036  644760232143     
      00037  432524335757     
                       00011  ML     EQU     *-M
      00040  0 00000 0 00000  T      PZE  
      00041  0 00000 0 00000  IND    PZE  
      00042  0 00000 0 00000  AC     PZE  
1      M1416 3845  PETER R. BOS ..... REJUVENATED SNAP FOR LIBRARY .......       11/30/70 1321.3 PAGE 2     
                  
                                     END  
1      M1416 3845  PETER R. BOS ..... REJUVENATED SNAP FOR LIBRARY .......       11/30/70 1321.3 PAGE 1     
                        POST PROCESSOR ASSEMBLY DATA  
                  
         43 IS THE FIRST LOCATION NOT USED BY THIS PROGRAM  
                  
0REFERENCES TO DEFINED SYMBOLS      
         27      M    21,   40
         40      T     7,   16
         42     AC    11,   23
         11     ML    21,   40
         41    IND    10,   25
         34    LOC    17
          6   SNAP     0,   24
          1  OCABC    15
          2  WRFLX    20
          0 PRDIAG    14
          3 RECOUP    22
                  
0 NO ERROR IN ABOVE ASSEMBLY. 




  SPH0   BCD 06/25/69 2048.5    1618         00000    
1            FAP                                                                                 PAGE 1     
                  
                              * (SPH), .PRINT, .SPRNT   FOR FOREGROUND. MODIFIED FOR MICHIGAN I/O     
                              *              MAY 1966  CLEANUP    
                  
                                             (SPH) STRAIGHT TO FLEXO    
                                             GOES THROUGH IOH TO WRFLX. IF RECORD IS MORE THAN  
                                             14 WORDS, USE WRFLXA, THEN WRFLX.  THE SUPERVISOR  
                                             ADD A CARRIAGE RETURN, IF NECESSARY.   
                                             FEB. 21, 1965  
                  
  BINARY CARD NO. SPH00000    
                       00005         ENTRY   (SPH)    
                       00005         ENTRY   (SPHM)   
                       00034         ENTRY   .PRINT   
                       00034         ENTRY   .COMNT   
                       00072         ENTRY   .SPRNT   
                  
        TRANSFER VECTOR 
                  
  BINARY CARD NO. SPH00001    
      00000  743146303460     (IOH) 
      00001  665126436760     WRFLX 
      00002  665126436721     WRFLXA
                  
            LINKAGE DIRECTOR  
      00003  000000000000     
      00004  746247303460     
                  
                       00005   (SPH) SYN     *  
      00005 -0500 00 4 00001  (SPHM) CAL     1,4
      00006  0560 00 0 00114         LDQ     FORT     
      00007  0634 00 4 00024         SXA     JN21,4   
      00010 -0634 00 4 77740         SXD     RTN,4    
      00011  0600 00 0 00000         STZ     0  
      00012  1 77776 4 00013         TXI     *+1,4,-2 
      00013  0636 00 4 00000         SCA     0,4
      00014 -0734 00 4 00000         PDX     0,4           IS DECREMENT ZERO  
      00015 -3 00000 4 00024         TXL     JN21,4,0      FORTRAN, BACKWARDS 
      00016 -0600 00 0 00121         STQ     TEMP     
      00017 -0130 00 0 00000         XCL  
      00020 -0500 00 0 00116         CAL     UMAP          -1 IN DECR. SET FOR FORWARDS   
      00021  0622 00 0 00121         STD     TEMP     
      00022 -0130 00 0 00000         XCL  
      00023  0560 00 0 00121         LDQ     TEMP     
                  
  BINARY CARD NO. SPH00002    
      00024  0774 00 4 00000   JN21  AXT     **,4     
      00025 -0600 00 0 77737         STQ     FMT
      00026  0621 00 0 77740         STA     RTN
      00027 -0500 00 0 00117         CAL     MAD
      00030  0630 00 0 77740         STP     RTN
      00031 -0500 00 0 00115         CAL     TPCNT    
      00032  0602 00 0 77741         SLW     COL
      00033  0020 60 0 00000         TRA*    $(IOH)   
                              *     
                       00034  .PRINT SYN     *  
      00034 -0500 00 0 00002  .COMNT CAL     2  
1            FAP                                                                                 PAGE 2     
                  
      00035  0602 00 0 00120         SLW     2SAVE    
      00036  0560 00 0 00042         LDQ     T1 
      00037 -0600 00 0 00002         STQ     2  
      00040 -0634 00 4 77740         SXD     RTN,4         SAVE CALLER LOC. IN RTN  
      00041  0020 00 4 00001         TRA     1,4
                              *     
      00042  0020 00 0 00043   T1    TRA     *+1
      00043  0634 00 4 00024         SXA     JN21,4   
      00044  0535 00 4 00000         LAC     0,4           GET FORMAT   
      00045 -0500 00 4 77777         CAL     -1,4          PARAMETER.   
      00046 -0734 00 4 00000         PDX     0,4           IS FORMAT BACKWARD 
      00047  0560 00 0 00117         LDQ     MAD           (D .NE. 0)   
                  
  BINARY CARD NO. SPH00003    
      00050  3 00000 4 00052         TXH     *+2,4,0       OR     
      00051  0560 00 0 00116         LDQ     UMAP          FORWARD (D .E. 0)  
      00052  3 00001 4 00060         TXH     SYT,4,1  
      00053 -0600 00 0 00121  T4     STQ     TEMP     
      00054 -0130 00 0 00000         XCL  
      00055 -0500 00 0 00114         CAL     FORT     
      00056  0621 00 0 00121         STA     TEMP     
      00057  0020 00 0 00022         TRA     JN21-2   
                              *     
                              *              TEST FOR SYMBOL TABLE
      00060  0560 00 0 00117   SYT   LDQ     MAD
      00061  0625 00 0 00122         STT     TGTMP    
      00062 -0520 00 0 00122         NZT     TGTMP    
      00063  0560 00 0 00116         LDQ     UMAP     
      00064  0734 00 4 00000         PAX     0,4
      00065  0600 00 0 77771         STZ     STLOC    
      00066  0634 00 4 77771         SXA     STLOC,4  
      00067 -0734 00 4 00000         PDX     0,4
      00070  0754 00 4 00000         PXA     0,4
      00071  0020 00 0 00053         TRA     T4 
                              *     
      00072  0634 00 4 00102  .SPRNT SXA     X4,4     
      00073 -0500 00 4 00001         CAL     1,4           GET CONTROL WORD FROM IOH
                  
  BINARY CARD NO. SPH00004    
      00074  0621 00 0 00101         STA     B  
      00075 -0734 00 4 00000         PDX     ,4            IX4=WORD COUNT     
      00076  2 00016 4 00104         TIX     A,4,N         TRANSF IF MORE THAN N WORDS    
      00077 -0634 00 4 00101         SXD     B,4
      00100  0074 00 4 00001         TSX     $WRFLX,4      PRINT LINE NO MORE THAN N WORDS
      00101  0 00000 0 00000  B      PZE     **,,**        1ST OR 2ND   
      00102  0774 00 4 00000  X4     AXT     **,4     
      00103  0020 00 4 00002         TRA     2,4           RETURN TO IOH
      00104 -0634 00 4 00101  A      SXD     B,4           WORD COUNT FOR 2ND LINE  
      00105  0534 00 4 00101         LXA     B,4
      00106  0634 00 4 00112         SXA     C,4           BUFFER ADDRESS FOR 1ST LINE    
      00107  1 00016 4 00110         TXI     *+1,4,N  
      00110  0634 00 4 00101         SXA     B,4           BUFFER ADDRESS FOR 2ND LINE    
      00111  0074 00 4 00002         TSX     $WRFLXA,4      MORE THAN N WORDS. SEND OUT FIRST PART    
      00112  0 00016 0 00000  C      PZE     **,,N          OF LINE.  SUPERVISOR WILL ADD C.R. IF     
      00113  0020 00 0 00100         TRA     B-1            NEEDED. TO PRINT LAST HALF.   
                              *     
1            FAP                                                                                 PAGE 3     
                  
                       00016  N      EQU     14 
      00114 -3 00001 0 00072   FORT  TXL     .SPRNT,,1
      00115 -3 00204 0 00000   TPCNT TXL     ,,132    
      00116  3 77777 0 00000   UMAP  TXH     **,,-1   
      00117  3 00001 0 00000   MAD   TXH     **,,1    
                  
  BINARY CARD NO. SPH00005    
      00120  0 00000 0 00000   2SAVE
      00121  0 00000 0 00000   TEMP 
      00122  0 00000 0 00000   TGTMP
                              *     
                              *     
                       00026  RECLEN EQU     22 
                       77771         COMMON  -200     
                       77771   STLOC COMMON  1  
                       77742         COMMON  RECLEN   
                       77742   REC   COMMON  1  
                       77741   COL   COMMON  1  
                       77740   RTN   COMMON  1  
                       77737   FMT   COMMON  1  
                                     END  
1            FAP                                                                                 PAGE 1     
                        POST PROCESSOR ASSEMBLY DATA  
                  
       77736 IS THE LAST LOCATION NOT USED BY THIS PROGRAM  
        123 IS THE FIRST LOCATION NOT USED BY THIS PROGRAM  
                  
0REFERENCES TO DEFINED SYMBOLS      
        104      A    76
        101      B    74,   77,  104,  105,  110,  113
        112      C   106
         16      N    76,  107,  112,  114
         42     T1    36
         53     T4    71
        102     X4    72
      77741    COL    32,  123
      77737    FMT    25,  123
        117    MAD    27,   47,   60
      77742    REC   123
      77740    RTN    10,   26,   30,   40,  123
         60    SYT    52
        114   FORT     6,   55
         24   JN21     7,   15,   43,   57
        121   TEMP    16,   21,   23,   53,   56
        116   UMAP    20,   51,   63
        120  2SAVE    35
      77771  STLOC    65,   66,  123
        122  TGTMP    61,   62
        115  TPCNT    31
          1  WRFLX   100
          0  (IOH)    33
          5  (SPH)     0,    5
         34 .COMNT     0
         34 .PRINT     0,   34
         72 .SPRNT     0,  114
         26 RECLEN   123
          2 WRFLXA   111
          5 (SPHM)     0
                  
0 NO ERROR IN ABOVE ASSEMBLY. 




  SPRY   BCD 06/25/69 2048.5     631         00000    
1       XLIBE ROUTINE SPRAY - RECONSTRUCTED BY ROGER ROACH  2/22/68              06/21/69 1833.8 PAGE 1     
                  
                              *     
                              * SPRAY FILLS AN ARRAY WITH A CERTAIN WORD
                              * ZERO FILLS THAT ARRAY WITH ZEROS  
                              *     
                              * CALLING SEQUENCES ARE :     
                              *                SPRAY.(WORD,LOC1,LOC2...LOC2(N),LOC3,...)  
                              *                ZERO.(LOC1,LOC2...LOC2(N),LOC3,....) 
                              *     
                       00015         ENTRY   SPRAY    
                       00000         ENTRY   ZERO     
      00000  0560 00 0 00033  ZERO   LDQ     =0 
      00001 -0600 00 0 00032         STQ     WORD     
      00002  0634 00 1 00013         SXA     XR1,1         SAVE IX 1    
      00003  0500 00 4 00001  LOOP   CLA     1,4           GET THE ARGUMENT FROM THE LIST 
      00004  0734 00 1 00000         PAX     ,1            PLACE INTO XR1     
      00005  0622 00 0 00017         STD     TNX           SAVE COUNT(IF ANY) IN TNX INSTR.     
      00006  0634 00 1 00022         SXA     DST,1         PLACE ADDRESS IN DOUBLE STORE INSTR. 
      00007 -0320 00 0 00031         ANA     SEVEN         TEST THE PREFIX    
      00010  0340 00 0 00030         CAS     TWO           COMPARE WITH A PTW 
      00011  0020 00 0 00025         TRA     OVER          NOPE, A PTH (NO COUNT)   
      00012  0020 00 0 00017         TRA     TNX           A COUNT, WE HAVE A BLOCK TO FILL     
      00013  0774 00 1 00000  XR1    AXT     **,1          EXIT   
      00014  0020 00 4 00001         TRA     1,4
                  
                  
      00015  0560 60 4 00001  SPRAY  LDQ*    1,4
      00016  1 77777 4 00001         TXI     ZERO+1,4,-1  MAKE THEM THINK IT WASN'T THERE 
                  
      00017 -2 00000 1 00025  TNX    TNX     OVER,1,** IF WE HAVE ONE LOC, SKIP     
      00020  0500 00 0 00032         CLA     WORD     
      00021  0774 00 0 00000         EVEN 
      00022 -0603 00 1 00000  DST    DST     **,1          STORE BOTH AT ONCE 
      00023  2 00002 1 00022         TIX     DST,1,2       LOOP FOR ENTIRE BLOCK    
      00024 -2 00001 1 00027         TNX     *+3,1,1       SKIP IF NO MORE TO STORE 
      00025  0774 00 1 00000  OVER   AXT     0,1
      00026 -0600 60 0 00022         STQ*    DST           STORE THAT LAST ONE
      00027  1 77777 4 00003         TXI     LOOP,4,-1     GO BACK FOR NEXT ARG     
                  
      00030  2 00000 0 00000  TWO    TWO  
      00031 -3 00000 0 00000  SEVEN  SEVEN
      00032  0 00000 0 00000  WORD   PZE  
                                     END  
                  
        LITERALS  
      00033  000000000000     
1       XLIBE ROUTINE SPRAY - RECONSTRUCTED BY ROGER ROACH  2/22/68              06/21/69 1833.8 PAGE 1     
                        POST PROCESSOR ASSEMBLY DATA  
                  
         34 IS THE FIRST LOCATION NOT USED BY THIS PROGRAM  
                  
0REFERENCES TO DEFINED SYMBOLS      
         22    DST     6,   23,   26
         17    TNX     5,   12
         30    TWO    10
         13    XR1     2
          3   LOOP    27
         25   OVER    11,   17
         32   WORD     1,   20
          0   ZERO     0,   16
         31  SEVEN     7
         15  SPRAY     0
                  
0 NO ERROR IN ABOVE ASSEMBLY. 




  SQRT   BCD 05/29/67 0009.3    1436         00000    
1            FAP                                                                                 PAGE 1     
                  
                              *SQRT  709 FORTRAN LIBRARY / FORTRAN VERSION OF CCSQT4
                              *FLOATING POINT SQUARE ROOT FOR 709 
                              * THIS ROUTINE HAS BEEN REVISED TO ACCOMODATE MAD/ MAY 1960 
                              *      AUGUST 22,1962   
                  
                              *  THE CALLING SEQUENCE IS    
                  
                              *       CALL  SQRT                TSX  $SQRT,4  
                              *       N=ARG IN THE AC           TXH  N  
                              *                                 TXH  ERROR    
                              *    FOR FORTRAN               FOR MAD    
                  
                  
                              *  ERROR RETURNS  
                              *    IF N IS NEGATIVE, GOES TO ERROR
                              *    THE MAD ERROR RETURN IS OPTIONAL.  IF THE PROGRAMMER DOES NOT
                              *      SPECIFY HIS OWN, THE FORTRAN ERROR ROUTINES WILL BE USED.  
                  
                  
                  
                  
  BINARY CARD NO. SQRT0000    
                       00004         ENTRY   SQRT     
                       00004         ENTRY   SQR
                  
        TRANSFER VECTOR 
                  
  BINARY CARD NO. SQRT0001    
      00000  255151465160     ERROR 
      00001  432464444760     LDUMP 
                  
            LINKAGE DIRECTOR  
      00002  000000000000     
      00003  625051636060     
                  
                       00004  SQR    EQU     *  
      00004  0601 00 0 77776  SQRT   STO     COMMON        MODE TEST--MAD OR FORTRAN
      00005  0500 00 0 00107         CLA     TXH            .     
      00006  0560 00 4 00001         LDQ     1,4            .     
      00007  0040 00 0 00012         TLQ     *+3            .  FORTRAN  
      00010  0500 60 4 00001         CLA*    1,4            .  GET MAD ARGUMENT     
      00011  0601 00 0 77776         STO     COMMON         .     
      00012  0500 00 0 77776         CLA     COMMON   
      00013 -0320 00 0 00102         ANA     MSK1          SEPARATE MANTISSA AND ODD BIT  
      00014  0771 00 0 00003         ARS     3             1/8 M OR M/4+1/8   
      00015  0340 00 0 00103         CAS     MSK2          SEPARATE     
      00016  0020 00 0 00025         TRA     ODD
      00017  0020 00 0 00047         TRA     APPRX    
      00020  0100 00 4 00001         TZE     1,4           ZERO ARGUMENT
      00021  0400 00 0 77776         ADD     COMMON        9/8 M  
      00022  0361 00 0 00104         ACL     A             9/8 M+7/8    
      00023  0120 00 0 00030         TPL     NEWIN    
                  
  BINARY CARD NO. SQRT0002    
      00024  0020 00 0 00047         TRA     APPRX    
      00025  0402 00 0 77776   ODD   SUB     COMMON        -(7/4 M-1/8+1)     
1            FAP                                                                                 PAGE 2     
                  
      00026  0361 00 0 00105         ACL     B             -(7/4 M+9/16+2)    
      00027  0120 00 0 00047         TPL     APPRX    
      00030  0771 00 0 00001   NEWIN ARS     1             -(7/8 M+9/32+1) OR 9/16 M+7/16 
      00031  0602 00 0 77777         SLW     COMMON+1      STORE POSITIVE     
      00032  0500 00 0 77776         CLA     COMMON   
      00033  0241 00 0 77777         FDP     COMMON+1 
      00034  0131 00 0 00000         XCA  
      00035  0361 00 0 77777         ACL     COMMON+1 
      00036  0771 00 0 00001         ARS     1  
      00037  0601 00 0 77777         STO     COMMON+1 
      00040  0500 00 0 77776         CLA     COMMON   
      00041  0241 00 0 77777         FDP     COMMON+1 
      00042  0131 00 0 00000         XCA  
      00043  0361 00 0 77777         ACL     COMMON+1 
      00044  0765 00 0 00001         LRS     1  
      00045  0760 00 0 00010         RND  
      00046  0020 00 4 00001         TRA     1,4
      00047  0500 00 0 77776   APPRX CLA     COMMON   
                  
  BINARY CARD NO. SQRT0003    
      00050 -0120 00 0 00054         TMI     SQTER    
      00051  0771 00 0 00001         ARS     1  
      00052  0361 00 0 00106         ACL     C  
      00053  0020 00 4 00001         TRA     1,4
                  
                  
      00054  0500 00 0 00107  SQTER  CLA     TXH           TEST FOR MAD ERROR RETURN
      00055  0560 00 4 00002         LDQ     2,4            .     
      00056  0040 00 0 00060         TLQ     *+2            .  NONE SPECIFIED, USE FORTRAN
      00057  0020 60 4 00002         TRA*    2,4            .     
      00060 -0634 00 4 00002         SXD     SQRT-2,4      FORTRAN ERROR ROUTINE    
      00061  0074 00 4 00000         TSX     $ERROR,4 
      00062  0 00000 0 00076         PZE     ARG
      00063  1 00000 0 00065         TXI     *+2,,0   
      00064  0 00000 0 00002         PZE     SQRT-2,,0
      00065  0500 00 0 77776         CLA     COMMON        ARGUMENT IN AC     
      00066  0074 00 4 00001         TSX     $LDUMP,4 
      00067  0 00000 0 00003         PZE     SQRT-1   
      00070  0020 00 0 00072         TRA     REPT     
      00071  0020 00 0 00074         TRA     OUT
                  
                  
      00072 -0534 00 4 00002  REPT   LXD     SQRT-2,4 
      00073  0020 00 4 00000         TRA     0,4           REPEAT MATH ROUTINE
                  
  BINARY CARD NO. SQRT0004    
      00074 -0534 00 4 00002  OUT    LXD     SQRT-2,4 
      00075  0020 00 4 00001         TRA     1,4           LEAVE MATH ROUTINE 
      00076  604525272163     ARG    BCI     3, NEGATIVE ARGUMENT 
      00077  316525602151     
      00100  276444254563     
      00101 -377777777777            OCT     777777777777   
1            FAP                                                                                 PAGE 3     
                  
                              *                            CONSTANTS    
                  
      00102 +001777777777      MSK1  OCT     1777777777     
      00103 +000077777777      MSK2  OCT     77777777 
      00104 +200700000000      A     DEC     .875     
      00105 +201540000000      B     DEC     1.375         USED AS 1+11/16 IN MANTISSA    
      00106 +100400000000      C     OCT     100400000000   
 ATD  00107  3 00000 0 00000  TXH    TXH                   CONSTANT FOR MAD-FORTRAN TEST  
                  
                  
                              *                            ERASABLES    
                  
                       77776         COMMON  -206+1   
                       77776  COMMON COMMON  1  
                                     END  
1            FAP                                                                                 PAGE 1     
                        POST PROCESSOR ASSEMBLY DATA  
                  
       77775 IS THE LAST LOCATION NOT USED BY THIS PROGRAM  
        110 IS THE FIRST LOCATION NOT USED BY THIS PROGRAM  
                  
0REFERENCES TO DEFINED SYMBOLS      
        104      A    22
        105      B    26
        106      C    52
         76    ARG    62
         25    ODD    16
         74    OUT    71
          4    SQR     0,    4
        107    TXH     5,   54
        102   MSK1    13
        103   MSK2    15
         72   REPT    70
          4   SQRT     0,   60,   64,   67,   72,   74
         47  APPRX    17,   24,   27
          0  ERROR    61
          1  LDUMP    66
         30  NEWIN    23
         54  SQTER    50
      77776 COMMON     4,   11,   12,   21,   25,   31,   32,   33,   35,   37,   40,   41,   43,   47,   65,  110
                  
0 NO ERROR IN ABOVE ASSEMBLY. 




  SRCH   BCD 05/29/67 0009.3    3376         00000    
1            FAP                                                                                 PAGE 1     
                  
                              *      SRCH, BLK, FLK, ENDF, CLOUT.  UTILITY DISK ROUTINES. 
                                             MODIFIED FOR NEW FILE SYSTEM  JUNE 1965     EMK    
                  
                              *      TSX     $SRCH,4       CALLING SEQUENCE TO SEARCH     
                              *      PZE     FILNAM        ACTIVE FILE DIRECTORY (FTB) FOR FILE 
                              *              ERROR RET.    RETURNS TO (2,4)IF FILE NOT FOUND    
                              *              NORMAL RET.   RETURNS TO (3,4) NORMAL WITH   
                              *                            STATUS WORD IN AC  
                              *     
                              *      TSX     $BLK,4        CALLING SEQUENCE TO ASSIGN BUFFER    
                              *              ERROR RET.    RETURNS (1,4) IF NO BUFFER AVAILABLE 
                              *              NORMAL RET.   RETURNS (2,4) NORMAL WITH
                              *                            AC=BUFFER ADDRESS,,POINTER     
                              *     
                              *      TSX     $FLK,4        CALLING SEQUENCE TO PUT FILE IN
                              *      PZE     FILNAM        DIRECTORY IF SPACE ALLOWS
                              *      PFX     STATUS,,PTR1 SETS STATUS OF FILE AND POINTERS TO   
                              *      PZE     ,,PTR2        ASSIGNED BUFFERS.  IF SIGN OF PFX IS 
                              *              ERROR RET.    POS, USE BUFFERED DISK CALLS.  IF NEG,     
                              *              NORMAL RET.   USE DIRECT SUPERVISOR CALLS.   
                              *                            RETURNS (3,4) IF NO SPACE IN (FTB)   
                              *                            RETURNS (4,4) NORMAL     
                              *     
                              *      TSX     $ENDF,4       CALLING SEQUENCE TO RESET
                              *      PZE     FILNAM        STATUS OF FILE TO ZERO AND FREE
                              *                            BUFFER (NO ERROR RETURN) 
                              *     
                              *      TSX     $CLOUT,4      CALLING SEQUENCE TO CLOSE OUT ALL    
                              *                            ACTIVE FILES AND FREE ALL BUFFERS    
                              *     
                              *      SETUP OF FTB TABLE  LENGTH = 40   4 WORDS FOR EACH FILE.   
                              *              WORD 1  PFX STATUS,,POINTER TO FIRST BUFFER  
                              *              WORD 2  PZE ,,POINTER TO SECOND BUFFER 
                              *              WORD 3  PRIMARY NAME OF FILE     
                              *              WORD 4  SECONDARY NAME OF FILE   
                              *              FTB-40,-39,-38,-37 REFER TO THE FIRST FILE IN THE TABLE  
                              *     
                              *      SETUP OF BTB TABLE  LENGTH=20   1 WORD FOR EACH ASSIGNED BUFFER  
                              *              PZE BUFADR,,PTR TO FIRST WORD OF INFO IN FTB CONCERNING  
                              *                             THE FILE WHICH USES THIS BUFFER.    
                              *     
                  
  BINARY CARD NO. SRCH0000    
                       00006         ENTRY   SRCH     
                       00040         ENTRY   BLK
                       00062         ENTRY   FLK
                       00123         ENTRY   ENDF     
                       00161         ENTRY   CLOUT    
                  
        TRANSFER VECTOR 
                  
  BINARY CARD NO. SRCH0001    
      00000  265125516060     FRER  
      00001  265125636060     FRET  
      00002  222623434662     BFCLOS
      00003  234346622560     CLOSE 
1            FAP                                                                                 PAGE 2     
                  
            LINKAGE DIRECTOR  
      00004  000000000000     
      00005  625123306060     
                  
                       00004  I4     SYN     *-2
                  
                       00006   SRCH  SYN     *  
      00006 -0634 00 4 00004         SXD     I4,4     
      00007  0634 00 1 00036         SXA     SRCHX,1  
      00010  0534 00 1 00220    FILO LXA     SIZE,1   
      00011  1 77776 1 00012         TXI     *+1,1,-2 
      00012 -0634 00 1 00031         SXD     FIL41,1  
      00013 -0500 60 4 00001         CAL*    1,4
      00014 -0340 00 1 00272  FIL1   LAS     FTB,1         LOOK FOR FILE NAME IN    
      00015  0020 00 0 00017         TRA     *+2           ACTIVE FILE TABLE  
      00016  1 77777 1 00021         TXI     FIL2,1,-1     PRIMARY NAME FOUND 
      00017  2 00004 1 00014         TIX     *-3,1,4  
      00020  1 00001 4 00036         TXI     SRCHX,4,1     PRIMARY NAME NOT FOUND. ERROR RETURN 
      00021 -0500 00 4 00001   FIL2  CAL     1,4           CHECK FOR SECONDARY NAME 
      00022  0400 00 0 00317         ADD     =1 
      00023  0621 00 0 00024         STA     *+1
                  
  BINARY CARD NO. SRCH0002    
      00024 -0500 00 0 00000         CAL     ** 
      00025 -0340 00 1 00272  FIL4   LAS     FTB,1    
      00026  0020 00 0 00030         TRA     *+2
      00027  1 00003 1 00033         TXI     FIL3,1,3      SECONDARY NAME FOUND     
      00030  1 77775 1 00031         TXI     *+1,1,-3      SET COUNTER FOR NEXT NAME
      00031 -3 00000 1 00013  FIL41  TXL     FIL1-1,1,**    
      00032  1 00001 4 00036         TXI     SRCHX,4,1     FILE NOT FOUND. ERROR RETURN   
      00033  0500 00 1 00272  FIL3   CLA     FTB,1         STATUS WORD IN AC  
      00034  0100 00 0 00032         TZE     *-2
      00035  0634 00 1 00217         SXA     TEMP,1   
      00036  0774 00 1 00000  SRCHX  AXT     **,1     
      00037  0020 00 4 00003         TRA     3,4           RETURN.
                  
                       00040   BLK   SYN     *  
      00040 -0634 00 4 00004         SXD     I4,4     
      00041  0634 00 1 00036         SXA     SRCHX,1  
      00042 -0534 00 1 00220    BLKO LXD     SIZE,1   
      00043  0500 00 1 00316  BLK1   CLA     BTB,1         IS ANY BUFFER SPACE AVAILABLE  
      00044  0100 00 0 00047         TZE     *+3           BUFF ADDR,,PTR TO (FTB)  
      00045  2 00001 1 00043         TIX     *-2,1,1  
      00046  1 00002 4 00036         TXI     SRCHX,4,2     NO ROOM.  ERROR RETURN   
      00047 -0634 00 1 00217         SXD     TEMP,1   
                  
  BINARY CARD NO. SRCH0003    
      00050  0074 00 4 00000         TSX     $FRER,4       GET FREE STORAGE BLOCK.  
      00051  0 00000 0 00221         PZE     BUFLEN   
      00052 -0100 00 0 00055         TNZ     *+3
      00053 -0534 00 4 00004         LXD     I4,4          NO ROOM FOR FREE BUFFER  
      00054  1 00002 4 00036         TXI     SRCHX,4,2     EXIT WITH ERROR RETURN   
      00055  0621 00 1 00316         STA     BTB,1    
      00056  0621 00 0 00217         STA     TEMP          ADDR. OF BUFFER    
      00057  0500 00 0 00217         CLA     TEMP          BUFFER ADDR,,POINTER     
      00060 -0534 00 4 00004  GT4    LXD     I4,4     
1            FAP                                                                                 PAGE 3     
                  
      00061  1 00001 4 00036         TXI     SRCHX,4,1     NORMAL RETURN
                  
                       00062   FLK   SYN     *  
      00062 -0634 00 4 00004         SXD     I4,4     
      00063  0634 00 1 00036         SXA     SRCHX,1  
      00064  0534 00 1 00220    FLKO LXA     SIZE,1        IS THERE SPACE IN ACTIVE FILE TABLE  
      00065  0500 00 1 00272  FLK1   CLA     FTB,1    
      00066  0100 00 0 00071         TZE     *+3           YES    
      00067  2 00004 1 00065         TIX     *-2,1,4  
      00070  1 77777 4 00036         TXI     SRCHX,4,-1    NO. ERROR RETURN   
      00071  0500 00 4 00002         CLA     2,4
      00072  0601 00 1 00272  FLK2   STO     FTB,1         STORE STATUS WORD IN TABLE     
      00073  0500 00 4 00003         CLA     3,4
                  
  BINARY CARD NO. SRCH0004    
      00074  0601 00 1 00273         STO     FTB+1,1       STORE SECOND BUFFER WD. IN TABLE.    
      00075 -0500 60 4 00001         CAL*    1,4           STORE PRIMARY FILE NAME  
      00076  1 77776 1 00077         TXI     *+1,1,-2 
      00077  0602 00 1 00272  FLK3   SLW     FTB,1    
      00100 -0500 00 4 00001         CAL     1,4           GET SECONDARY NAME AND   
      00101  0400 00 0 00317         ADD     =1            STORE IN TABLE     
      00102  0621 00 0 00103         STA     *+1
      00103 -0500 00 0 00000         CAL     ** 
      00104  1 77777 1 00105         TXI     *+1,1,-1 
      00105  0602 00 1 00272  FLK4   SLW     FTB,1    
      00106 -0500 00 4 00002         CAL     2,4
      00107  1 00003 1 00110         TXI     *+1,1,3  
      00110 -0634 00 1 00217         SXD     TEMP,1        GET POINTER IF BUFFER ASSIGNED 
      00111 -0734 00 1 00000         PDX     ,1            POINTER=0 IS BUFFER PROVIDED   
      00112 -3 00000 1 00122         TXL     FLK5+1,1,0     
      00113  0500 00 0 00217         CLA     TEMP     
      00114  0622 00 1 00316         STD     BTB,1    
      00115 -0500 00 4 00003         CAL     3,4           GET POINTER TO SECOND BUFFER   
      00116 -0734 00 1 00000         PDX     ,1            IF ANY 
      00117 -3 00000 1 00122         TXL     FLK5+1,1,0     
                  
  BINARY CARD NO. SRCH0005    
      00120  0500 00 0 00217         CLA     TEMP     
      00121  0622 00 1 00316  FLK5   STD     BTB,1    
      00122  1 77776 4 00036         TXI     SRCHX,4,-2    RETURN.
                  
                       00123   ENDF  SYN     *  
      00123  0634 00 4 00157         SXA     XR4,4    
      00124 -0500 00 4 00001         CAL     1,4
      00125  0621 00 0 00127         STA     *+2
      00126  0074 00 4 00006         TSX     SRCH,4        SEARCH FOR FILE    
      00127  0 00000 0 00000         PZE     ** 
      00130  0020 00 0 00157         TRA     XR4           FILE NOT THERE, IGNORE REQUEST 
      00131  0534 00 1 00217         LXA     TEMP,1   
      00132  0600 00 1 00272  END1   STZ     FTB,1         DROP FILE BY RESETTING STATUS  
      00133 -0734 00 1 00000         PDX     ,1 
      00134 -3 00000 1 00157         TXL     XR4,1,0  
      00135  0500 00 1 00316         CLA     BTB,1    
      00136  0621 00 0 00216         STA     TMP
      00137  0074 00 4 00001         TSX     $FRET,4  
      00140  0 00000 0 00221         PZE     BUFLEN   
1            FAP                                                                                 PAGE 4     
                  
      00141  0 00000 0 00216         PZE     TMP
      00142  0600 00 1 00316         STZ     BTB,1    
      00143  0534 00 1 00217         LXA     TEMP,1   
                  
  BINARY CARD NO. SRCH0006    
      00144  1 77777 1 00145         TXI     *+1,1,-1 
      00145  0500 00 1 00272         CLA     FTB,1         GET SECOND STATUS WORD.  
      00146  0600 00 1 00272         STZ     FTB,1    
      00147 -0734 00 1 00000         PDX     ,1 
      00150 -3 00000 1 00157         TXL     XR4,1,0       IF PTR. IS ZERO, BUFFER NOT ASSIGNED.
      00151  0500 00 1 00316         CLA     BTB,1    
      00152  0621 00 0 00216         STA     TMP
      00153  0074 00 4 00001         TSX     $FRET,4  
      00154  0 00000 0 00221         PZE     BUFLEN   
      00155  0 00000 0 00216         PZE     TMP
      00156  0600 00 1 00316         STZ     BTB,1    
      00157  0774 00 4 00000  XR4    AXT     **,4     
      00160  1 00001 4 00036         TXI     SRCHX,4,1
                  
                       00161   CLOUT SYN     *  
      00161 -0634 00 4 00004         SXD     I4,4     
      00162  0634 00 1 00036         SXA     SRCHX,1  
      00163  0634 00 2 00213         SXA     X2,2     
      00164  0634 00 4 00214         SXA     X4,4     
      00165  0600 00 0 00217         STZ     TEMP     
      00166  0534 00 1 00220     CLO LXA     SIZE,1   
      00167  0600 00 1 00272  CL1    STZ     FTB,1         ZERO ALL STATUS WORDS.   
                  
  BINARY CARD NO. SRCH0007    
      00170  0600 00 1 00273         STZ     FTB+1,1  
      00171  2 00004 1 00167         TIX     *-2,1,4  
      00172  0074 00 4 00002         TSX     $BFCLOS,4
      00173  3 00000 0 00321         PTH     =H   ALL 
      00174  3 00000 0 00320         PTH     =-0
      00175  3 00000 0 00176         PTH     *+1
      00176  0074 00 4 00003         TSX     $CLOSE,4      CLOSE OUT ALL FILES
      00177  3 00000 0 00321         PTH     =H   ALL 
      00200  3 00000 0 00320         PTH     =-0
      00201  3 00000 0 00202         PTH     *+1
      00202 -0534 00 1 00220  CL4    LXD     SIZE,1        RETURN ALL BUFFERS TO FREE STORAGE   
      00203  0500 00 1 00316         CLA     BTB,1    
      00204  0100 00 0 00212         TZE     X2-1     
      00205  0621 00 0 00217         STA     TEMP     
      00206  0074 00 4 00001         TSX     $FRET,4  
      00207  0 00000 0 00221         PZE     BUFLEN   
      00210  0 00000 0 00217         PZE     TEMP     
      00211  0600 00 1 00316         STZ     BTB,1    
      00212  2 00001 1 00203         TIX     CL4+1,1,1
      00213  0774 00 2 00000   X2    AXT     **,2          RESTORE XRS  
                  
  BINARY CARD NO. SRCH0008    
      00214  0774 00 4 00000   X4    AXT     **,4          AND    
      00215  1 00002 4 00036         TXI     SRCHX,4,2     RETURN.
1            FAP                                                                                 PAGE 5     
                  
      00216  0 00000 0 00000  TMP    PZE  
      00217 +000000000000      TEMP  DEC     0  
      00220  0 00024 0 00050  SIZE   PZE     40,,20   
      00221 +000000000660     BUFLEN DEC     432
                       00222         DUP     1,10*4   
      00222  0 00000 0 00000         PZE     0  
      00223  0 00000 0 00000  
      00224  0 00000 0 00000  
      00225  0 00000 0 00000  
      00226  0 00000 0 00000  
      00227  0 00000 0 00000  
      00230  0 00000 0 00000  
      00231  0 00000 0 00000  
      00232  0 00000 0 00000  
      00233  0 00000 0 00000  
      00234  0 00000 0 00000  
      00235  0 00000 0 00000  
      00236  0 00000 0 00000  
      00237  0 00000 0 00000  
                  
  BINARY CARD NO. SRCH0009    
      00240  0 00000 0 00000  
      00241  0 00000 0 00000  
      00242  0 00000 0 00000  
      00243  0 00000 0 00000  
      00244  0 00000 0 00000  
      00245  0 00000 0 00000  
      00246  0 00000 0 00000  
      00247  0 00000 0 00000  
      00250  0 00000 0 00000  
      00251  0 00000 0 00000  
      00252  0 00000 0 00000  
      00253  0 00000 0 00000  
      00254  0 00000 0 00000  
      00255  0 00000 0 00000  
      00256  0 00000 0 00000  
      00257  0 00000 0 00000  
      00260  0 00000 0 00000  
      00261  0 00000 0 00000  
      00262  0 00000 0 00000  
      00263  0 00000 0 00000  
                  
  BINARY CARD NO. SRCH0010    
      00264  0 00000 0 00000  
      00265  0 00000 0 00000  
      00266  0 00000 0 00000  
      00267  0 00000 0 00000  
      00270  0 00000 0 00000  
      00271  0 00000 0 00000  
                       00272  FTB    SYN     *  
                       00272         DUP     1,10*2   
      00272  0 00000 0 00000         PZE     0  
      00273  0 00000 0 00000  
      00274  0 00000 0 00000  
      00275  0 00000 0 00000  
      00276  0 00000 0 00000  
1            FAP                                                                                 PAGE 6     
                  
      00277  0 00000 0 00000  
      00300  0 00000 0 00000  
      00301  0 00000 0 00000  
      00302  0 00000 0 00000  
      00303  0 00000 0 00000  
      00304  0 00000 0 00000  
      00305  0 00000 0 00000  
      00306  0 00000 0 00000  
      00307  0 00000 0 00000  
                  
  BINARY CARD NO. SRCH0011    
      00310  0 00000 0 00000  
      00311  0 00000 0 00000  
      00312  0 00000 0 00000  
      00313  0 00000 0 00000  
      00314  0 00000 0 00000  
      00315  0 00000 0 00000  
      00316  0 00000 0 00000  BTB    PZE     0  
                                     END  
                  
        LITERALS  
      00317  000000000001     
      00320  400000000000     
      00321  606060214343     
1            FAP                                                                                 PAGE 1     
                        POST PROCESSOR ASSEMBLY DATA  
                  
        322 IS THE FIRST LOCATION NOT USED BY THIS PROGRAM  
                  
0REFERENCES TO DEFINED SYMBOLS      
          4     I4     6,   40,   53,   60,   62,  161
        213     X2   163,  204
        214     X4   164
         40    BLK     0,   40
        316    BTB    43,   55,  114,  121,  135,  142,  151,  156,  203,  211
        167    CL1      
        202    CL4   212
        166    CLO      
         62    FLK     0,   62
        272    FTB    14,   25,   33,   65,   72,   74,   77,  105,  132,  145,  146,  167,  170,  272
         60    GT4      
        216    TMP   136,  141,  152,  155
        157    XR4   123,  130,  134,  150
         43   BLK1      
         42   BLKO      
        132   END1      
        123   ENDF     0,  123
         14   FIL1    31
         21   FIL2    16
         33   FIL3    27
         25   FIL4      
         10   FILO      
         65   FLK1      
         72   FLK2      
         77   FLK3      
        105   FLK4      
        121   FLK5   112,  117
         64   FLKO      
          0   FRER    50
          1   FRET   137,  153,  206
        220   SIZE    10,   42,   64,  166,  202
          6   SRCH     0,    6,  126
        217   TEMP    35,   47,   56,   57,  110,  113,  120,  131,  143,  165,  205,  210
          3  CLOSE   176
        161  CLOUT     0,  161
         31  FIL41    12
         36  SRCHX     7,   20,   32,   41,   46,   54,   61,   63,   70,  122,  160,  162,  215
          2 BFCLOS   172
        221 BUFLEN    51,  140,  154,  207
                  
0 NO ERROR IN ABOVE ASSEMBLY. 




  STB0   BCD 05/29/67 0009.3    1465         00000    
1            FAP                                                                                 PAGE 1     
                  
                              *      JULY 64    
                  
                  
                  
  BINARY CARD NO. STB00000    
                       00012         ENTRY   (STB)    
                       00101         ENTRY   (WLR)    
                       00057         ENTRY   (TSB)    
                       00113         ENTRY   (RLR)    
                  
                  
                  
        TRANSFER VECTOR 
                  
  BINARY CARD NO. STB00001    
      00000  266263216360     FSTAT 
      00001  214747254524     APPEND
      00002  216262312745     ASSIGN
      00003  622525426060     SEEK  
      00004  225125212460     BREAD 
      00005  226651316325     BWRITE
      00006  242543222360     DELBC 
      00007  227125436060     BZEL  
                  
            LINKAGE DIRECTOR  
      00010  000000000000     
      00011  746263223460     
                  
      00012  0634 00 4 00031  (STB)  SXA     RET1,4   
      00013  0074 00 4 00126         TSX     CONV,4   
      00014  0074 00 4 00000  OPEN   TSX     $FSTAT,4 
      00015  3 00000 0 00125         BRN     FILNAM   
      00016  0100 00 0 00033  NOFIL  TZE     NOFILE   
      00017  0074 00 4 00001         TSX     $APPEND,4
      00020  3 00000 0 00125         BRN     FILNAM   
      00021 -0500 00 0 00000         CAL     0  
      00022  0602 00 0 00115         SLW     LOC0     
      00023 -0500 00 0 00002         CAL     2  
                  
  BINARY CARD NO. STB00002    
      00024  0602 00 0 00116         SLW     LOC2     
      00025 -0500 00 0 00117         CAL     TRAWRT   
      00026  0602 00 0 00002         SLW     2  
      00027  0500 00 0 00121         CLA     INIT     
      00030  0601 00 0 00104         STO     BUFCNT   
      00031  0774 00 4 00000  RET1   AXT     **,4     
      00032  0020 00 4 00001         TRA     1,4
      00033  0074 00 4 00002  NOFILE TSX     $ASSIGN,4
      00034  3 00000 0 00125         BRN     FILNAM   
      00035  0020 00 0 00017         TRA     NOFIL+1  
      00036  0634 00 4 00045  WRITE  SXA     INDEX4,4 
      00037 -0534 00 4 00104         LXD     BUFCNT,4 
      00040  1 00001 4 00041         TXI     *+1,4,1  
      00041  3 00304 4 00047         TXH     FULL,4,FSTBUF+100-1  
      00042 -0634 00 4 00104         SXD     BUFCNT,4 
      00043  0634 00 4 00044         SXA     *+1,4    
1            FAP                                                                                 PAGE 2     
                  
      00044 -0600 00 0 00000         STQ     **            WORD   
      00045  0774 00 4 00000  INDEX4 AXT     **,4     
      00046  0020 60 0 00000         TRA*    0  
      00047 -0600 00 0 00140    FULL STQ     TEMP     
                  
  BINARY CARD NO. STB00003    
      00050  0074 00 4 00005         TSX     BWRITE,4 
 TD   00051  3 00000 0 00125         TXH     FILNAM   
      00052  2 00304 0 00141         TIX     FSTBUF,,FSTBUF+100-1 
      00053  0500 00 0 00121         CLA     INIT     
      00054  0601 00 0 00104         STO     BUFCNT   
      00055  0560 00 0 00140         LDQ     TEMP     
      00056  0020 00 0 00037         TRA     WRITE+1  
      00057  0634 00 4 00071  (TSB)  SXA     RET3,4   
      00060  0074 00 4 00126         TSX     CONV,4   
      00061  0074 00 4 00003         TSX     $SEEK,4       NO ERROR RETURN WHEN FILE NOT FOUND  
      00062  3 00000 0 00125         BRN     FILNAM   
      00063 -0500 00 0 00000         CAL     0  
      00064  0602 00 0 00115         SLW     LOC0     
      00065 -0500 00 0 00002         CAL     2  
      00066  0602 00 0 00116         SLW     LOC2     
      00067 -0500 00 0 00120         CAL     TRARD    
      00070  0602 00 0 00002         SLW     2  
      00071  0774 00 4 00000  RET3   AXT     **,4     
      00072  0020 00 4 00001         TRA     1,4
      00073  0634 00 4 00045  READ   SXA     INDEX4,4      LOC 0 AND LOC 2 NOT RESTORED ON EOF  
                  
  BINARY CARD NO. STB00004    
      00074  0074 00 4 00004         TSX     $BREAD,4 
      00075  3 00000 0 00125         BRN     FILNAM   
 TD   00076  3 00000 0 00123         TXH     WORD     
      00077  0560 00 0 00123         LDQ     WORD     
      00100  0020 00 0 00045         TRA     INDEX4   
      00101  0634 00 4 00111  (WLR)  SXA     RET2,4        FILE NOT CLOSED OUT AT END OF WRITING
      00102  0074 00 4 00005         TSX     $BWRITE,4
 TD   00103  3 00000 0 00125         TXH     FILNAM   
      00104  2 00140 0 00141  BUFCNT TIX     FSTBUF,,FSTBUF-1     
      00105  0500 00 0 00115  RESTOR CLA     LOC0     
      00106  0601 00 0 00000         STO     0  
      00107  0500 00 0 00116         CLA     LOC2     
      00110  0601 00 0 00002         STO     2  
      00111  0774 00 4 00000  RET2   AXT     **,4     
      00112  0020 00 4 00001         TRA     1,4
      00113  0634 00 4 00111  (RLR)  SXA     RET2,4        FILE NOT CLOSE OUT AT END OF READING 
      00114  0020 00 0 00105         TRA     RESTOR   
      00115  0 00000 0 00000  LOC0   PZE  
      00116  0 00000 0 00000  LOC2   PZE  
      00117  0020 00 0 00036  TRAWRT TRA     WRITE    
                  
  BINARY CARD NO. STB00005    
      00120  0020 00 0 00073  TRARD  TRA     READ     
      00121  2 00140 0 00141  INIT   TIX     FSTBUF,,FSTBUF-1     
      00122  0761 00 0 00000  NOP    NOP  
      00123  0 00000 0 00000  WORD   PZE  
      00124  0 00000 0 00000         PZE     **            FILNAM-1     
      00125  336321472533     FILNAM BCI     1,.TAPE. 
1            FAP                                                                                 PAGE 3     
                  
      00126  0634 00 4 00136  CONV   SXA     X4,4     
      00127  0601 00 0 00124         STO     FILNAM-1 
      00130  0074 00 4 00006         TSX     $DELBC,4 
      00131  0 00000 0 00124         PZE     FILNAM-1 
      00132  0601 00 0 00124         STO     FILNAM-1 
      00133  0074 00 4 00007         TSX     $BZEL,4  
      00134  0 00000 0 00124         PZE     FILNAM-1 
      00135  0601 00 0 00124         STO     FILNAM-1 
      00136  0774 00 4 00000  X4     AXT     **,4     
      00137  0020 00 4 00001         TRA     1,4
      00140  0 00000 0 00000    TEMP PZE  
      00141                   FSTBUF BSS     100
                                     END  
1            FAP                                                                                 PAGE 1     
                        POST PROCESSOR ASSEMBLY DATA  
                  
        305 IS THE FIRST LOCATION NOT USED BY THIS PROGRAM  
                  
0REFERENCES TO DEFINED SYMBOLS      
        136     X4   126
        122    NOP      
          7   BZEL   133
        126   CONV    13,   60
         47   FULL    41
        121   INIT    27,   53
        115   LOC0    22,   64,  105
        116   LOC2    24,   66,  107
         14   OPEN      
         73   READ   120
         31   RET1    12
        111   RET2   101,  113
         71   RET3    57
          3   SEEK    61
        140   TEMP    47,   55
        123   WORD    76,   77
          4  BREAD    74
          6  DELBC   130
          0  FSTAT    14
         16  NOFIL    35
        120  TRARD    67
         36  WRITE    56,  117
        113  (RLR)     0
         12  (STB)     0
         57  (TSB)     0
        101  (WLR)     0
          1 APPEND    17
          2 ASSIGN    33
        104 BUFCNT    30,   37,   42,   54
          5 BWRITE    50,  102
        125 FILNAM    15,   20,   34,   51,   62,   75,  103,  127,  131,  132,  134,  135
        141 FSTBUF    41,   52,  104,  121
         45 INDEX4    36,   73,  100
         33 NOFILE    16
        105 RESTOR   114
        117 TRAWRT    25
                  
0 NO ERROR IN ABOVE ASSEMBLY. 




  STFL   BCD 10/22/67 2154.7     259         00000    
1                                                                                                PAGE 1     
                  
                       00000         ENTRY   SETBCD   
                       00001         ENTRY   SETFUL   
                       00002         ENTRY   SETNCV   
                       00003         ENTRY   SETNBK   
                       00004         ENTRY   KILNBK   
      00000  0101 00 0 00006  SETBCD TIA     =HSETBCD 
      00001  0101 00 0 00007  SETFUL TIA     =HSETFUL 
      00002  0101 00 0 00011  SETNCV TIA     =HSETNCV 
      00003  0101 00 0 00010  SETNBK TIA     =HSETNBK 
      00004  0101 00 0 00005  KILNBK TIA     =HKILNBK 
                                     END  
                  
        LITERALS  
      00005  423143452242     
      00006  622563222324     
      00007  622563266443     
      00010  622563452242     
      00011  622563452365     
1                                                                                                PAGE 1     
                        POST PROCESSOR ASSEMBLY DATA  
                  
         12 IS THE FIRST LOCATION NOT USED BY THIS PROGRAM  
                  
0REFERENCES TO DEFINED SYMBOLS      
          4 KILNBK     0
          0 SETBCD     0
          1 SETFUL     0
          3 SETNBK     0
          2 SETNCV     0
                  
0 NO ERROR IN ABOVE ASSEMBLY. 




  STOM   BCD 05/29/67 0009.3    1500         00000    
1            FAP                                                                                 PAGE 1     
                  
                              *     STOMAP      SYMBOL TABLE PRINT  JANUARY 30, 1961    LYNDA KORN    
                       00004         ENTRY   STOMAP   
                  
                                                   CALL STOMAP    
                                                  1,4       RETURN
                                             PRINTS A STORAGE MAP OF THE SYMBOL TABLE USING MOVIE)    
                  
                  
        TRANSFER VECTOR 
      00000  444665312534     MOVIE)
      00001  665126436760     WRFLX 
                  
            LINKAGE DIRECTOR  
      00002  000000000000     
      00003  626346442147     
                  
      00004 -0634 00 4 00002  STOMAP SXD     STOMAP-2,4     
      00005  0634 00 1 00066         SXA     IX1,1    
      00006  0634 00 2 00067         SXA     IX2,2    
      00007  0500 60 0 00000         CLA*    $MOVIE)  
      00010  0622 00 0 00056         STD     FULST    
      00011  0771 00 0 00022         ARS     18 
      00012  0400 60 0 00000         ADD*    $MOVIE)  
      00013  0621 00 0 00025         STA     SRCH     
      00014  0621 00 0 00035         STA     AGAIN    
      00015  0400 00 0 00153         ADD     =1 
      00016  0621 00 0 00040         STA     ORG
                  
      00017  0074 00 4 00001         TSX     $WRFLX,4 
      00020  0 00010 0 00100         PZE     HEAD,,8  
      00021  0074 00 4 00001         TSX     $WRFLX,4 
      00022  0 00013 0 00110         PZE     PHEAD,,11
      00023  0774 00 2 00002         AXT     2,2
      00024  0774 00 1 00000         AXT     0,1                 IX1 USED TO INDEX IN BCD LINE  
      00025  0500 00 2 00000    SRCH CLA     **,2           TOP ADDRESS OF SYMBOL TABLE +1
      00026 -0100 00 0 00032         TNZ     TSTTV    
      00027 -0500 00 0 00076         CAL     (MAIN)         ZERO INDICATES MAIN PROGRAM   
      00030  0602 00 1 00123         SLW     NAME1,1  
 TD   00031 -3 00000 0 00046         TXL     CADR     
      00032  0522 00 0 00025  TSTTV  XEC     SRCH     
      00033  0402 00 0 00077         SUB     TXL
      00034  0100 00 0 00040         TZE     ORG
      00035 -0500 00 2 00000  AGAIN  CAL     **,2     
      00036 -0320 00 0 00077         ANA     TXL
      00037 -0100 00 0 00044         TNZ     SUBPR    
                                             ADDRESS NON ZERO THEREFORE BCD NAME    
      00040  0560 00 2 00000  ORG    LDQ     **,2     
      00041  0074 00 4 00136         TSX     CNVRT,4  
      00042  0602 00 0 00152         SLW     ORGTNT   
      00043  0020 00 0 00055         TRA     UPIX2    
      00044  0522 00 0 00035  SUBPR  XEC     AGAIN                   CAL   SYMT,2   
      00045  0602 00 1 00123         SLW     NAME1,1  
      00046  0522 00 0 00040  CADR   XEC     ORG
      00047  0074 00 4 00136         TSX     CNVRT,4     E.P. IN MQ FOR DECIMAL CONVERSION
      00050  0602 00 1 00125         SLW     ENTRY1,1 
      00051 -0500 00 0 00152         CAL     ORGTNT   
1            FAP                                                                                 PAGE 2     
                  
      00052  0602 00 1 00124         SLW     ORGIN1,1 
      00053  1 77774 1 00054         TXI     *+1,1,-4 
      00054 -3 77765 1 00072         TXL     TPRT,1,-11     IX1 TO PRINT AFTER 3 NAMES    
      00055  1 00002 2 00056  UPIX2  TXI     *+1,2,2  
      00056 -3 00000 2 00025  FULST  TXL     SRCH,2,**         A DONE SYMBOL TABLE PRINT  
      00057  0754 00 1 00000         PXA     ,1      CHECK IX 1 FOR PART OF NUMBER TO PRINT     
      00060  0737 00 1 00000         PAC     0,1
      00061  0754 00 1 00000         PXA     0,1
      00062  0100 00 0 00066         TZE     IX1
      00063 -0634 00 1 00065         SXD     LASTT,1  
      00064  0074 00 4 00001         TSX     $WRFLX,4 
      00065  0 00000 0 00123  LASTT  PZE     NUMBER,,**       LAST TIME 
      00066  0774 00 1 00000  IX1    AXT     **,1     
      00067  0774 00 2 00000  IX2    AXT     **,2     
      00070 -0534 00 4 00002         LXD     STOMAP-2,4     
      00071  0020 00 4 00001         TRA     1,4
                  
      00072  0074 00 4 00001  TPRT   TSX     $WRFLX,4 
      00073  0 00013 0 00123         PZE     NUMBER,,11     
      00074  0774 00 1 00000         AXT     0,1
 TD   00075 -3 00000 0 00055         TXL     UPIX2    
                  
      00076  744421314534     (MAIN) BCI     1,(MAIN) 
 ATD  00077 -3 00000 0 00000  TXL    TXL  
      00100  606060606060     HEAD   BCI     8,                       SUBPROGRAM STORAGE MAP    
      00101  606060606060     
      00102  606060606060     
      00103  606060606062     
      00104  642247514627     
      00105  512144606263     
      00106  465121272560     
      00107  442147606060     
      00110  604521442560     PHEAD  BCI     9, NAME ORIGIN ENTRY       NAME ORIGIN ENTRY       NAME  
      00111  465131273145     
      00112  602545635170     
      00113  606060606060     
      00114  604521442560     
      00115  465131273145     
      00116  602545635170     
      00117  606060606060     
      00120  604521442560     
      00121  465131273145            BCI     2,ORIGIN ENTRY 
      00122  602545635170     
      00123  606060606060     NUMBER BCI ,
      00124  606060606060     
      00125  606060606060     
      00126  606060606060     
      00127  606060606060     
      00130  606060606060     
      00131  606060606060     
      00132  606060606060     
      00133  606060606060     
      00134  606060606060     
      00135  606060606060            BCI     1, 
                       00123  NAME1  SYN     0+NUMBER 
                       00124  ORGIN1 SYN     1+NUMBER 
1            FAP                                                                                 PAGE 3     
                  
                       00125  ENTRY1 SYN     2+NUMBER 
                  
      00136  0634 00 1 00146  CNVRT  SXA     RESTOR,1 
      00137 -0773 00 0 00025         RQL     21 
      00140 -0754 00 0 00005  FIVE   PXD     5,0
      00141  0534 00 1 00140         LXA     FIVE,1   
      00142  0767 00 0 00003  MOVE   ALS     3  
      00143 -0763 00 0 00003         LGL     3  
      00144  2 00001 1 00142         TIX     MOVE,1,1 
      00145 -0501 00 0 00151         ORA     BLANK    
      00146  0774 00 1 00000  RESTOR AXT     **,1     
      00147  0020 00 4 00001         TRA     1,4
      00150  606060606060     BLANKS BCI     1, 
      00151  600000000000     BLANK  BCI     1, 00000 
      00152  0 00000 0 00000  ORGTNT PZE                             TEMPORARY STORAGE OF ORIGIN
                                     END  
                  
        LITERALS  
      00153  000000000001     
1            FAP                                                                                 PAGE 1     
                        POST PROCESSOR ASSEMBLY DATA  
                  
        154 IS THE FIRST LOCATION NOT USED BY THIS PROGRAM  
                  
0REFERENCES TO DEFINED SYMBOLS      
         66    IX1     5,   62
         67    IX2     6
         40    ORG    16,   34,   46
         77    TXL    33,   36
         46   CADR    31
        140   FIVE   141
        100   HEAD    20
        142   MOVE   144
         25   SRCH    13,   32,   56
         72   TPRT    54
         35  AGAIN    14,   44
        151  BLANK   145
        136  CNVRT    41,   47
         56  FULST    10
         65  LASTT    63
        123  NAME1    30,   45,  136
        110  PHEAD    22
         44  SUBPR    37
         32  TSTTV    26
         55  UPIX2    43,   75
          1  WRFLX    17,   21,   64,   72
        150 BLANKS      
        125 ENTRY1    50,  136
          0 MOVIE)     7,   12
        123 NUMBER    65,   73,  136
        124 ORGIN1    52,  136
        152 ORGTNT    42,   51
        146 RESTOR   136
          4 STOMAP     0,    4,   70
         76 (MAIN)    27
                  
0 NO ERROR IN ABOVE ASSEMBLY. 




  STOR   BCD 05/29/67 0009.3     135         00000    
1                                                                                                PAGE 1     
                  
                       00000         ENTRY   STORGE   
      00000  0101 00 0 00001  STORGE TIA     =HSTORGE 
                                     END  
                  
        LITERALS  
      00001  626346512725     
1                                                                                                PAGE 1     
                        POST PROCESSOR ASSEMBLY DATA  
                  
          2 IS THE FIRST LOCATION NOT USED BY THIS PROGRAM  
                  
0REFERENCES TO DEFINED SYMBOLS      
          0 STORGE     0
                  
0 NO ERROR IN ABOVE ASSEMBLY. 




  SYPR   BCD 05/29/67 0009.3    1145         00000    
1            FAP                                                                                 PAGE 1     
                  
                              *      SYPAR   RETURNS SUPERVISOR PARAMETERS    
                              *              V = SYPAR.(N)  
                              *      N = 0   NOTHING  
                              *      N = 1   LAST COMMON LOCATION NOT USED    
                              *      N = 2   LENGTH OF COMMON AREA
                              *      N = 3   FIRST LOCATION LOADED IN CORE A  
                              *      N = 4   LENGTH OF PROGRAM BLOCK    
                              *      N = 5   NAME OF THE LOADING SET    
                              *      N.G.P   LOCATION N     
                              *              P = 10 IN PRESENT SYSTEM   
                  
                  
                              TSS    MACRO   B,X
                                     TSX     $B,X     
                              TSS    END                                                            **
                  
  BINARY CARD NO. SYPAR000    
                       00011         ENTRY   SYPAR    
                  
                  
                  
        TRANSFER VECTOR 
                  
  BINARY CARD NO. SYPAR001    
      00000  636262263143     TSSFIL
      00001  464725456060     OPEN  
      00002  512426314325     RDFILE
      00003  234346622560     CLOSE 
      00004  646251263143     USRFIL
      00005  272563434623     GETLOC
      00006  624521476060     SNAP  
                  
            LINKAGE DIRECTOR  
      00007  000000000000     
      00010  627047215160     
                  
                       00007  X4     SYN     *-2
                  
                       00011  SYPAR  SYN     *  
      00011 -0634 00 4 00007         SXD     X4,4     
      00012 -0500 00 4 00001         CAL     1,4
      00013 -0320 00 0 00111         ANA     =O777777700000 
      00014  0322 00 0 00070         ERA     TSX
      00015  0560 60 4 00001         LDQ*    1,4
      00016  0602 00 0 00071         SLW     S  
      00017  0100 00 0 00021         TZE     *+2           SKIP IF FORTRAN CALL     
      00020 -0763 00 0 00022         LGL     18 
      00021 -0763 00 0 00022         LGL     18 
      00022  0734 00 4 00000         PAX     ,4 
      00023 -0754 00 0 00000         ZAC  
                  
  BINARY CARD NO. SYPAR002    
 D    00024 -3 00000 4 00062         TXL     A,4           TRANSFER IF N=0    
      00025  3 00012 4 00055         TXH     B,4,P         TRANSFER IF N.G.10 
      00026  0634 00 4 00052         SXA     C,4
      00027                          TSS     TSSFIL,4 
1            FAP                                                                                 PAGE 2     
                  
      00030  0074 00 4 00001         TSX     $OPEN,4  
      00031  3 00000 0 00110         PTH     =HR
      00032  3 00000 0 00072         PTH     FIL
      00033  3 00000 0 00073         PTH     FIL+1    
      00034  3 00000 0 00107         PTH     =-0
      00035  3 00000 0 00107         PTH     =-0
      00036  3 00000 0 00064         PTH     ZZ 
      00037  0074 00 4 00002         TSX     $RDFILE,4
      00040  3 00000 0 00072         PTH     FIL
      00041  3 00000 0 00073         PTH     FIL+1    
      00042  3 00000 0 00106         PTH     =0 
      00043  3 00012 0 00074         PTH     D,,P     
      00044  3 00000 0 00064         PTH     ZZ 
      00045  0074 00 4 00003         TSX     $CLOSE,4 
      00046  3 00000 0 00072         PTH     FIL
      00047  3 00000 0 00073         PTH     FIL+1    
                  
  BINARY CARD NO. SYPAR003    
      00050  3 00000 0 00064         PTH     ZZ 
      00051                          TSS     USRFIL,4 
      00052 -0774 00 4 00000  C      AXC     **,4     
      00053  0500 00 4 00073         CLA     D-1,4    
      00054  0020 00 0 00062         TRA     A  
      00055  0634 00 4 00057  B      SXA     E,4
      00056                          TSS     GETLOC,4 
      00057  0 00000 0 00000  E      PZE     ** 
      00060 -0130 00 0 00000         XCL  
      00061  0131 00 0 00000         XCA  
      00062 -0534 00 4 00007  A      LXD     X4,4     
      00063  0020 00 4 00002         TRA     2,4
                  
                  
      00064  0634 00 4 00066  ZZ     SXA     F,4
      00065                          TSS     USRFIL,4 
      00066  0774 00 4 00000  F      AXT     **,4     
      00067  0020 60 0 00006         TRA*    $SNAP    
                  
                  
                       00012  P      EQU     10            (LOAD FILE) TITLE  
 AT   00070  0074 00 0 00000  TSX    TSX  
      00071  0 00000 0 00000  S      PZE                   NON ZERO IF NOT FORTRAN CALL   
      00072  607443462124     FIL    BCI     2, (LOAD FILE) 
      00073  602631432534     
      00074                   D      BSS     P  
                                     END  
                  
        LITERALS  
                  
  BINARY CARD NO. SYPAR004    
      00106  000000000000     
      00107  400000000000     
      00110  516060606060     
      00111  777777700000     
1            FAP                                                                                 PAGE 1     
                        POST PROCESSOR ASSEMBLY DATA  
                  
        112 IS THE FIRST LOCATION NOT USED BY THIS PROGRAM  
                  
0REFERENCES TO DEFINED SYMBOLS      
         62      A    24,   54
         55      B    25
         52      C    26
         74      D    43,   53
         57      E    55
         66      F    64
         12      P    25,   43,   70,   74
         71      S    16
          7     X4    11,   62
         64     ZZ    36,   44,   50
         72    FIL    32,   33,   40,   41,   46,   47
         70    TSX    14
          1   OPEN    30
          6   SNAP    67
          3  CLOSE    45
         11  SYPAR     0,   11
          5 GETLOC    56
          2 RDFILE    37
          0 TSSFIL    27
          4 USRFIL    51,   65
                  
0 NO ERROR IN ABOVE ASSEMBLY. 




  TANH   BCD 05/29/67 0009.3    1697         00000    
1            FAP                                                                                 PAGE 1     
                  
                              *TANH  709 FORTRAN LIBRARY / FLOATING POINT HYBERBOLIC TANGENT / 9TNH   
                              *      AUGUST 22,1962   
                              *  THIS ROUTINE HAS BEEN REVISED TO ACCOMODATE MAD / MAY 1960     
                  
                              *  THE CALLING SEQUENCE IS    
                  
                              *       CALL  TANH                TSX  $TANH,4  
                              *       N=ARG IN THE AC           TXH  N  
                              *    FOR FORTRAN               FOR MAD    
                  
                  
                  
                  
  BINARY CARD NO. TANH0000    
                       00002         ENTRY   TANH     
                  
            LINKAGE DIRECTOR  
                  
  BINARY CARD NO. TANH0001    
      00000  000000000000     
      00001  632145306060     
                  
      00002  0601 00 0 77775  TANH   STO     F             MODE TEST--MAD OR FORTRAN
      00003  0500 00 0 00142         CLA     =O300000000000                                       JSMI
      00004  0560 00 4 00001         LDQ     1,4            .     
      00005  0040 00 0 00010         TLQ     *+3            .  FORTRAN  
      00006  0500 60 4 00001         CLA*    1,4            .  GET MAD ARGUMENT     
      00007  0601 00 0 77775         STO     F              .  .  
      00010  0500 00 0 77775         CLA     F  
      00011  0760 00 0 00003         SSP  
      00012  0402 00 0 00132         SUB     =.00034                                              JSMI
      00013  0120 00 0 00016         TPL T5     
      00014  0500 00 0 77775         CLA F                 TEST IF ARGUMENT LESS THAN .00034    
      00015  0020 00 4 00001         TRA 1,4               IF SO LET TANH X EQUAL X 
      00016  0402 00 0 00127  T5     SUB     =O017000000000                                       JSMI
      00017 -0120 00 0 00026         TMI     T6 
      00020  0500 00 0 77775         CLA     F                                                    JSMI
      00021 -0120 00 0 00024         TMI     MINUS                                                JSMI
      00022  0500 00 0 00134         CLA     =1.                                                  JSMI
      00023  0020 00 4 00001         TRA     1,4           SET TANH (X) = 1   
                  
  BINARY CARD NO. TANH0002    
      00024  0502 00 0 00134  MINUS  CLS     =1.                                                  JSMI
      00025  0020 00 4 00001         TRA     1,4                                                  JSMI
      00026  0500 00 0 77775   T6    CLA F
      00027  0765 00 0 00033         LRS 27     
      00030 -0760 00 0 00003         SSM  
      00031  0400 00 0 00125         ADD     =O242                                                JSMI
      00032  0621 00 0 00034         STA SH1    
      00033  0200 00 0 00141         MPY     =1.4426950409B1                                      JSMI
 A    00034  0765 00 0 00000   SH1   LRS                   SEPARATE INTEGER AND FRACTION  
      00035  0767 00 0 00033         ALS 27     
      00036  0601 00 0 77774         STO M
      00037  0763 00 0 00002         LLS 2
      00040  0100 00 0 00103         TZE T2                IF ARGUMENT LESS THAN .25 TRANSFER   
      00041  0765 00 0 00006         LRS 6                 IF GREATER COMPUTE E TO THE X  
1            FAP                                                                                 PAGE 2     
                  
      00042 -0600 00 0 77775         STQ F
      00043  0200 00 0 77775         MPY F                 COMPUTE FRACTION SQUARED 
      00044  0601 00 0 77776         STO SQ                COMPUTE CONTINUED FRACTION     
      00045  0400 00 0 00131         ADD     =87.417497202B8                                      JSMI
      00046  0601 00 0 77777         STO T                 8,27   
      00047  0500 00 0 00130         CLA     =617.9722695B12                                      JSMI
                  
  BINARY CARD NO. TANH0003    
      00050  0221 00 0 77777         DVP T                 8,27 4,31    
      00051 -0600 00 0 77777         STQ T                 4,31   
      00052  0560 00 0 77776         LDQ SQ                8,27   
      00053  0200 00 0 00126         MPY     =.03465735903B0                                      JSMI
      00054  0763 00 0 00004         LLS 4                 4,31   
      00055  0402 00 0 77777         SUB T                 4,31   
      00056  0400 00 0 00140         ADD     =9.9545957821B4                                      JSMI
      00057  0402 00 0 77775         SUB F                 4,31   
      00060  0601 00 0 77777         STO T                 4,31   
      00061  0500 00 0 77775         CLA F                 5,31 NUMERATOR EQUALS 2F 
      00062  0560 00 0 00134         LDQ     =1.                                                  JSMI
      00063  0225 33 0 77777         VDP     T,0,27   
      00064  0131 00 0 00000         XCA  
      00065  0400 00 0 00134         ADD     =1.                                                  JSMI
      00066  0400 00 0 77774   T1    ADD M
      00067  0601 00 0 77774         STO M                 COMPUTE TANH X FROM E TO THE X 
      00070  0500 00 0 00134         CLA     =1.                                                  JSMI
      00071  0241 00 0 77774         FDP M
      00072 -0600 00 0 77775         STQ F
      00073  0500 00 0 77774         CLA M
                  
  BINARY CARD NO. TANH0004    
      00074  0300 00 0 77775         FAD F
      00075  0601 00 0 77777         STO T
      00076  0500 00 0 77774         CLA M
      00077  0302 00 0 77775         FSB F
      00100  0241 00 0 77777   T10   FDP T
      00101  0131 00 0 00000         XCA  
      00102  0020 00 4 00001         TRA 1,4               RETURN 
      00103  0560 00 0 77775   T2    LDQ F                 COMPUTE TANH 4LOGE IF X SMALL  
      00104  0260 00 0 00135         FMP     =5.7707801636                                        JSMI
      00105  0601 00 0 77775         STO F
      00106  0131 00 0 00000         XCA  
      00107  0260 00 0 77775         FMP F
      00110  0601 00 0 77776         STO SQ     
      00111  0300 00 0 00137         FAD     =349.6699888                                         JSMI
      00112  0601 00 0 77777         STO T
      00113  0500 00 0 00136         CLA     =14.1384114018                                       JSMI
      00114  0241 00 0 77777         FDP T
      00115  0131 00 0 00000         XCA  
      00116  0300 00 0 00133         FAD     =.01732867951                                        JSMI
      00117  0131 00 0 00000         XCA  
                  
  BINARY CARD NO. TANH0005    
      00120  0260 00 0 77776         FMP SQ     
      00121  0300 00 0 00135         FAD     =5.7707801636                                        JSMI
      00122  0601 00 0 77777     T12 STO T
      00123  0500 00 0 77775         CLA F
1            FAP                                                                                 PAGE 3     
                  
      00124  0020 00 0 00100         TRA T10    
                  
                  
                  
                  
                              *                            ERASABLES    
                  
                       77777         COMMON  -206     
                       77777  T      COMMON  1  
                       77776  SQ     COMMON  1  
                       77775  F      COMMON  1  
                       77774  M      COMMON  1  
                                     END                                                          JSMI
                  
        LITERALS  
      00125  000000000242     
      00126  010676467774     
      00127  017000000000     
      00130  046477071523     
      00131  127325604305     
      00132  165544410070     
      00133  173433723377     
      00134  201400000000     
      00135  203561250731     
      00136  204704333566     
      00137  211535527021     
      00140  237214030720     
      00141  270524354513     
      00142  300000000000     
1            FAP                                                                                 PAGE 1     
                        POST PROCESSOR ASSEMBLY DATA  
                  
       77773 IS THE LAST LOCATION NOT USED BY THIS PROGRAM  
        143 IS THE FIRST LOCATION NOT USED BY THIS PROGRAM  
                  
0REFERENCES TO DEFINED SYMBOLS      
      77775      F     2,    7,   10,   14,   20,   26,   42,   43,   57,   61,   72,   74,   77,  103,  105,  107,  123
                     125
      77774      M    36,   66,   67,   71,   73,   76,  125
      77777      T    46,   50,   51,   55,   60,   63,   75,  100,  112,  114,  122,  125
      77776     SQ    44,   52,  110,  120,  125
         66     T1      
        103     T2    40
         16     T5    13
         26     T6    17
         34    SH1    32
        100    T10   124
        122    T12      
          2   TANH     0
         24  MINUS    21
                  
0 NO ERROR IN ABOVE ASSEMBLY. 




  TIMR   BCD 05/29/67 0009.3    4599         00000    
1            FAP                                                                                 PAGE 1     
                  
                              *  FABRY'S FRM7 MODIFICATION FOR FORGROUND TIMING 7/15/64   
                       00122         ENTRY   TIMER    
                       00035         ENTRY   JOBTM    
                       00077         ENTRY   RSCLCK   
                       00104         ENTRY   STOPCL   
                       00253         ENTRY   KILLTR   
                       00062         ENTRY   TIMLFT   
                       00321         ENTRY   RSTRTN   
                              *     
                              *              RSCLCK...RESET CLOCK TO TIME,,ZERO,,   
                              *              STOPCL        GIVES BACK TIME SINCE LAST RSCLCK.   
                              *              JOBTM         GIVES BACK TIME SINCE START OF JOB.  
                              *              TIMER         SETS CLOCK TO ACT LIKE ALARM CLOCK.  
                              *              KILLTR        RESETS ALARM CLOCK BEFORE IT GOES OFF.     
                              *              TIMLFT        GIVES BACK TIME LEFT FOR JOB TO RUN. 
                              *              RTNRST        RETURN TO INTERRUPTED PROGRAM  
                              *                                 WITH MACHINE CONDITIONS RESTORED AS OF
                              *                                 LAST INTERRUPT.     
                              *              CALLING SEQUENCE...CALL RSCLCK   
                              *              CALLING SEQUENCE...CALL STOPCL(I)
                              *               CALLING SEQUENCE... CALL TIMLFT(I)    
                              *              CALLING SEQUENCE...CALL TIMER(I,STMT)  
                              *              CALLING SEQUENCE...CALL KILLTR   
                              *              CALLING SEQUENCE...CALL JOBTM(I) 
                              *              CALLING SEQUENCE...CALLRSTRTN    
                              *     
                  
            LINKAGE DIRECTOR  
      00000  000000000000     
      00001  633144255160     
                  
                       00005   CLKRD SYN     5  
                       00006  CLKLOC SYN     6  
                       00007  CLKTRA SYN     7  
                              *      SETUP ROUTINE FOR CLOCK AND PUSHDOWN.    
                              *      THIS ROUTINE USED TO BE CALLED BY .SETUP TO SETUP PUSHDOWN 
      00002  0500 00 0 00423  TIME   CLA     =O777777    ASSUME APPROX. 72 HR. JOBTIME    
      00003  0601 00 0 00030         STO     JOBTIM   
      00004  0601 00 0 00421         STO     TMLEFT   
      00005  0601 00 0 00237         STO     LSTSET   
      00006 -0501 00 0 00027         ORA     STRT     
      00007  0534 00 1 00252         LXA     NTBL,1   
      00010  0602 00 1 00252         SLW     TMTBL,1  
      00011  1 77777 1 00012         TXI     *+1,1,-1      OPCODE VAR.FIELD   
      00012  0634 00 1 00252         SXA     NTBL,1   
      00013 -0500 00 0 00026         CAL     TRA7     
      00014  0602 00 0 00007         SLW     CLKTRA   
      00015 -0500 00 0 00421         CAL     TMLEFT   
      00016  0760 00 0 00006         COM  
      00017  0601 00 0 00005         STO     CLKRD    
      00020  0634 00 4 00022         SXA     *+2,4    
      00021  0074 00 4 00032         TSX     CLOCON,4 
      00022  0774 00 4 00000         AXT     **,4     
      00023  0774 00 1 00000   TM2   AXT     **,1     
      00024 -0625 00 0 00031         STL     TIMET    
      00025  0021 00 4 00001         TTR     1,4
1            FAP                                                                                 PAGE 2     
                  
      00026  0021 00 0 00335   TRA7  TTR     FROM7    
      00027  1 00034 0 00000   STRT  PON     0,0,GOMON     VECTOR ENTRY FOR JOB TIME UP.  
      00030  0 00000 0 00000  JOBTIM
      00031  0 00000 0 00000  TIMET 
      00032  0101 00 0 00425  CLOCON TIA     =HCLOCON 
      00033  0101 00 0 00424  CLOCOF TIA     =HCLOCOF 
      00034  0000 00 0 00321  GOMON  HTR     RSTRTN   
                              ************************************************************************
                              *              JOBTM    
                              *              CALLING SEQUENCE... TSX JOBTM,4  
                              *                                  PZE TIMEX      RESULT IN DECR. 
                              *                                (TXH)            RESULT IN ADDR. 
      00035  0634 00 4 00060  JOBTM  SXA     JT4,4    
      00036 -0520 00 0 00031         NZT     TIMET    
      00037  0074 00 4 00002         TSX     TIME,4   
      00040  0534 00 4 00060         LXA     JT4,4    
      00041 -0500 00 4 00001         CAL     1,4
      00042  0630 00 0 00236         STP     PRFX     
      00043  0074 00 4 00033         TSX     CLOCOF,4 
      00044 -0500 00 0 00005         CAL     CLKRD    
      00045  0760 00 0 00006         COM  
      00046 -0320 00 0 00423         ANA     =O777777 
      00047 -0760 00 0 00003         SSM  
      00050  0400 00 0 00237         ADD     LSTSET   
      00051  0400 00 0 00030         ADD     JOBTIM   
      00052  0402 00 0 00421         SUB     TMLEFT   
      00053 -0520 00 0 00236         NZT     PRFX     
      00054  0767 00 0 00022         ALS     18 
      00055  0534 00 4 00060         LXA     JT4,4    
      00056  0601 60 4 00001         STO*    1,4
      00057  0074 00 4 00032         TSX     CLOCON,4 
      00060  0774 00 4 00000  JT4    AXT     **,4     
      00061  0020 00 4 00002         TRA     2,4
                              ************************************************************************
                              *              TIMLFT   
                              *              CALLING SEQUENCE...TSX TIMLFT,4  
                              *                                 PZE LEFT       RESULT IN DECR.  
                              *                                (TXH) LEFT      RESULT IN ADDR.  
                       00062  TIMLFT SYN     *  
      00062  0634 00 4 00065         SXA     TML1,4   
      00063  0074 00 4 00035         TSX     JOBTM,4  
 TD   00064  3 00000 0 00076         TXH     RUNR     
      00065  0774 00 4 00000   TML1  AXT     **,4     
      00066 -0500 00 4 00001         CAL     1,4
      00067  0630 00 0 00236         STP     PRFX     
      00070  0500 00 0 00030         CLA     JOBTIM   
      00071  0402 00 0 00076         SUB     RUNR     
      00072 -0520 00 0 00236         NZT     PRFX     
      00073  0767 00 0 00022         ALS     18 
      00074  0601 60 4 00001         STO*    1,4
      00075  0021 00 4 00002         TTR     2,4
      00076  0 00000 0 00000   RUNR  PZE  
                              ************************************************************************
                              *              RSCLCK   
                              *              CALLING SEQUENCE...TSX RSCLCK,4  
                       00077  RSCLCK SYN     *  
1            FAP                                                                                 PAGE 3     
                  
      00077  0634 00 4 00102         SXA     RSC1,4   
      00100  0074 00 4 00035         TSX     JOBTM,4  
 TD   00101  3 00000 0 00120         TXH     CNTRL    
      00102  0774 00 4 00000   RSC1  AXT     **,4     
      00103  0021 00 4 00001         TTR     1,4
                              *******************************************************************     
                              *              STOPCL   
                              *              CALLING SEQUENCE...CALL STOPCL(J)
                              *     
                       00104  STOPCL SYN     *  
      00104  0634 00 4 00107         SXA     STP1,4   
      00105  0074 00 4 00035         TSX     JOBTM,4  
 TD   00106  3 00000 0 00121         TXH     NEWT     
      00107  0774 00 4 00000   STP1  AXT     **,4     
      00110 -0500 00 4 00001         CAL     1,4
      00111  0630 00 0 00236         STP     PRFX     
      00112  0500 00 0 00121         CLA     NEWT     
      00113  0402 00 0 00120         SUB     CNTRL    
      00114 -0520 00 0 00236         NZT     PRFX     
      00115  0767 00 0 00022         ALS     18            0=FORTRAN TYPE     
      00116  0601 60 4 00001         STO*    1,4           NON-ZERO=MAD TYPE  
      00117  0021 00 4 00002         TTR     2,4
      00120  0 00000 0 00000   CNTRL                       OLD TIME LEFT. BASE POINT
      00121  0 00000 0 00000   NEWT 
                              ************************************************************************
                              *              TIMER    
                              *              CALLING SEQUENCE...CALL TIMER(I,N)     
                              *                            ...EXECUTE TIMER.(A,B)   
                              *              WHERE I GIVES TIME IN 60THS OF SECOND FOR CLOCK TO RUN   
                              *              BEFORE ALARM. N CONTAINS LOCATION WHERE CONTROL IS SENT  
                              *              AFTER ALARM CLOCK GOES OFF.
      00122  0634 00 4 00231  TIMER  SXA     CLK11,4  
      00123 -0520 00 0 00031         NZT     TIMET    
      00124  0074 00 4 00002         TSX     TIME,4   
      00125  0074 00 4 00033         TSX     CLOCOF,4 
      00126  0634 00 1 00230         SXA     CLK10,1  
      00127  0534 00 4 00231         LXA     CLK11,4  
      00130 -0500 00 4 00001         CAL     1,4
      00131  0630 00 0 00236         STP     PRFX     
      00132 -0500 60 4 00001         CAL*    1,4           TIME INTERVAL IN SECONDS 
      00133 -0520 00 0 00236         NZT     PRFX     
      00134  0771 00 0 00022         ARS     18            0=FORTRAN. NON-ZERO=MAD  
      00135  0602 00 0 00234         SLW     NEWINT        TIME INTERVAL IN 60THS OF A SECOND   
                              *              COMPUTE ELAPSED TIME FROM LAST READING 
      00136  0534 00 1 00252         LXA     NTBL,1        NO. OF OPENINGS IN TABLE 
      00137 -3 00000 1 00227         TXL     CLK10A,1,0     
      00140 -0634 00 1 00155         SXD     CLK2,1   
      00141 -0500 00 0 00005         CAL     CLKRD    
      00142  0600 00 0 00005         STZ     CLKRD    
      00143  0760 00 0 00006         COM  
      00144 -0130 00 0 00000         XCL  
      00145  0131 00 0 00000         XCA                   -TIME LEFT IN AC   
      00146  0400 00 0 00237         ADD     LSTSET        LAST SETTING-TIME LEFT   
      00147  0601 00 0 00233         STO     TMUSED        =TIME USED IN 60THS OF SECOND. 
      00150  0774 00 1 00012         AXT     N,1
      00151  0500 00 1 00252   CLK1  CLA     TMTBL,1       DECREASE TIME LIMITS     
1            FAP                                                                                 PAGE 4     
                  
      00152  0402 00 0 00233         SUB     TMUSED        ON ALL ENTRIES     
      00153  0601 00 1 00252         STO     TMTBL,1       IN THE TABLE 
      00154  1 77777 1 00155         TXI     *+1,1,-1 
      00155  3 00000 1 00151   CLK2  TXH     CLK1,1,**
      00156 -0500 00 4 00002         CAL     2,4           PICK UP LOCATION   
      00157 -0320 00 0 00422         ANA     =O77777                                                 A
      00160  0767 00 0 00022         ALS     18            TO TRANSFER TO WHEN CLOCK GOES OFF   
      00161 -0501 00 0 00234         ORA     NEWINT   
      00162  0602 00 0 00235         SLW     TEMP     
                              *              SEARCH FOR PROPER POSITION IN TABLE.   
      00163  0534 00 1 00252         LXA     NTBL,1   
      00164 -0634 00 1 00176         SXD     CLK5,1   
      00165 -0634 00 1 00212         SXD     CLK8,1   
      00166  0774 00 1 00012         AXT     N,1
      00167 -0500 00 1 00252   CLK3  CAL     TMTBL,1  
      00170 -0320 00 0 00423         ANA     =O777777 
      00171 -0340 00 0 00234         LAS     NEWINT   
      00172  0020 00 0 00175         TRA     CLK4     
      00173  0761 00 0 00000         NOP  
      00174  0020 00 0 00202         TRA     SMLR     
      00175  1 77777 1 00176   CLK4  TXI     *+1,1,-1 
      00176  3 00000 1 00167   CLK5  TXH     CLK3,1,**
      00177  0560 00 0 00235         LDQ     TEMP          IF NEW INTERVAL IS LESS  
      00200 -0600 00 1 00252         STQ     TMTBL,1       THAN REST THAT ARE 
      00201  0020 00 0 00214         TRA     CLK9          IN THE TABLE 
                              *     
                              *              FOUND A LARGER VALUE. INSERT NEW VALUE 
                              *              IN TABLE AND PUSH DOWN THE REST. 
      00202  0560 00 1 00252   SMLR  LDQ     TMTBL,1  
      00203 -0500 00 0 00235         CAL     TEMP     
      00204  0602 00 1 00252         SLW     TMTBL,1  
      00205  0020 00 0 00211         TRA     CLK7     
      00206 -0500 00 1 00252   CLK6  CAL     TMTBL,1  
      00207 -0600 00 1 00252         STQ     TMTBL,1  
      00210 -0130 00 0 00000         XCL  
      00211  1 77777 1 00212   CLK7  TXI     *+1,1,-1 
      00212  3 00000 1 00206   CLK8  TXH     CLK6,1,**
      00213 -0600 00 1 00252         STQ     TMTBL,1  
      00214  1 77777 1 00215   CLK9  TXI     *+1,1,-1 
      00215  0634 00 1 00252         SXA     NTBL,1   
                              *              SET CLOCK FOR NEW VALUE    
      00216  0500 00 0 00421         CLA     TMLEFT   
      00217  0402 00 0 00233         SUB     TMUSED   
      00220  0402 00 0 00005         SUB     CLKRD    
      00221  0601 00 0 00421         STO     TMLEFT        ADJUST TOTAL TIME COUNT  
      00222 -0130 00 0 00000         XCL                   LOWEST INTERVAL IN MQ    
      00223 -0320 00 0 00423         ANA     =O777777 
      00224  0602 00 0 00237         SLW     LSTSET   
      00225  0760 00 0 00006         COM  
      00226  0601 00 0 00005         STO     CLKRD         RESET C(5) TO NEW VALUE  
      00227  0074 00 4 00032  CLK10A TSX     CLOCON,4 
      00230  0774 00 1 00000   CLK10 AXT     **,1     
      00231  0774 00 4 00000  CLK11  AXT     **,4     
      00232  0020 00 4 00003         TRA     3,4           EXIT   
      00233  0 00000 0 00000  TMUSED
      00234  0 00000 0 00000  NEWINT
1            FAP                                                                                 PAGE 5     
                  
      00235  0 00000 0 00000   TEMP 
      00236  0 00000 0 00000   PRFX 
      00237  0 00000 0 00000  LSTSET
                       00012   N     EQU     10 
      00252                    TMTBL BES     N  
      00252  0 00000 0 00012   NTBL  PZE     N  
                              ************************************************************************
                              *              KILLTR   
                              *              CALLING SEQUENCE...CALL KILLTR   
                              *              KILLS LAST TIMER ALARM CLOCK SETTING   
                              *              EXCEPT IF LAST SET FOR JOB TIME SETTING.     
      00253  0634 00 1 00316  KILLTR SXA     KILL1,1  
      00254  0634 00 4 00317         SXA     KILL4,4  
      00255 -0520 00 0 00031         NZT     TIMET    
      00256  0074 00 4 00002         TSX     TIME,4   
      00257  0074 00 4 00033         TSX     CLOCOF,4 
      00260  0534 00 1 00252         LXA     NTBL,1   
      00261  1 00001 1 00262         TXI     *+1,1,1  
      00262 -0500 00 1 00252         CAL     TMTBL,1  
      00263  0630 00 0 00236         STP     PRFX     
      00264  0520 00 0 00236         ZET     PRFX     
      00265  0020 00 0 00315         TRA     RTN           JOB TIME SETTING CANNOT BE KILLED    
      00266 -0500 00 0 00005         CAL     CLKRD    
      00267  0760 00 0 00006         COM  
      00270 -0320 00 0 00423         ANA     =O777777 
      00271 -0760 00 0 00003         SSM  
      00272  0400 00 0 00237         ADD     LSTSET   
      00273  0601 00 0 00237         STO     LSTSET   
      00274  0634 00 1 00252         SXA     NTBL,1   
      00275 -0634 00 1 00303         SXD     RTNM,1   
      00276  0774 00 1 00012         AXT     N,1
      00277  0500 00 1 00252  RTNL   CLA     TMTBL,1  
      00300  0402 00 0 00237         SUB     LSTSET   
      00301  0601 00 1 00252         STO     TMTBL,1  
      00302  1 77777 1 00303         TXI     *+1,1,-1 
      00303  3 00000 1 00277  RTNM   TXH     RTNL,1,**
      00304 -0320 00 0 00423         ANA     =O777777 
      00305  0602 00 0 00234         SLW     NEWINT   
      00306  0500 00 0 00421         CLA     TMLEFT   
      00307  0402 00 0 00237         SUB     LSTSET   
      00310  0601 00 0 00421         STO     TMLEFT   
      00311 -0500 00 0 00234         CAL     NEWINT   
      00312  0602 00 0 00237         SLW     LSTSET   
      00313  0760 00 0 00006         COM  
      00314  0601 00 0 00005         STO     CLKRD    
      00315  0074 00 4 00032  RTN    TSX     CLOCON,4 
      00316  0774 00 1 00000  KILL1  AXT     **,1     
      00317  0774 00 4 00000  KILL4  AXT     **,4     
      00320  0020 00 4 00001         TRA     1,4
                              ************************************************************************
                              *              RSTRTN   
                              *              CALLING SEQUENCE...CALL RSTRTN   
                       00321  RSTRTN SYN     *  
      00321 -0500 00 0 00321         CAL     *  
      00322  0767 00 0 00003         ALS     3  
      00323  0500 00 0 00416         CLA     SPQ
1            FAP                                                                                 PAGE 6     
                  
      00324  0767 00 0 00002         ALS     2  
      00325 -0501 00 0 00417         ORA     LOGAC    
      00326 -0520 00 0 00415         NZT     OVFL     
      00327  0140 00 0 00330         TOV     *+1
      00330  0560 00 0 00420         LDQ     MQ 
      00331  0534 00 1 00411         LXA     CL1,1    
      00332  0534 00 2 00412         LXA     CL2,2    
      00333  0534 00 4 00413         LXA     CL4,4    
      00334  0021 60 0 00006         TTR*    6  
                              ************************************************************************
                              *              ENTRY FROM 7 AFTER CLOCK HAS GONE OFF. 
                       00335   FROM7 SYN     *  
      00335  0634 00 1 00411         SXA     CL1,1    
      00336  0634 00 2 00412         SXA     CL2,2    
      00337  0634 00 4 00413         SXA     CL4,4    
      00340  0074 00 4 00033         TSX     CLOCOF,4 
      00341  0600 00 0 00415         STZ     OVFL     
      00342 -0600 00 0 00420         STQ     MQ 
      00343  0602 00 0 00417         SLW     LOGAC         SAVE LOGICAL ACCUMULATOR 
      00344  0771 00 0 00002         ARS     2  
      00345  0601 00 0 00416         STO     SPQ
      00346 -0140 00 0 00350         TNO     *+2
      00347 -0625 00 0 00415         STL     OVFL     
      00350  0534 00 1 00252         LXA     NTBL,1   
      00351  1 00001 1 00352         TXI     *+1,1,1  
      00352 -0500 00 1 00252         CAL     TMTBL,1  
      00353 -0734 00 2 00000         PDX     0,2           SET TRANSFER 
      00354  0634 00 2 00414         SXA     TRAD,2        LOCATION.    
      00355  0767 00 0 00002         ALS     2                                                       A
      00356 -0760 00 0 00001         PBT                                                             B
      00357  0021 00 0 00361         TTR     *+2                                                     C
      00360  0021 00 0 00402         TTR     CLKN          GO TO MONITOR SETTING. DONT RESET CLOCK   D
      00361  0634 00 1 00252         SXA     NTBL,1   
      00362 -0634 00 1 00370         SXD     CLKM,1   
      00363  0774 00 1 00012         AXT     N,1
      00364  0500 00 1 00252  CLKL   CLA     TMTBL,1       REVISE PREVIOUS    
      00365  0402 00 0 00237         SUB     LSTSET        ENTRIES IN THE TABLE.    
      00366  0601 00 1 00252         STO     TMTBL,1  
      00367  1 77777 1 00370         TXI     *+1,1,-1 
      00370  3 00000 1 00364  CLKM   TXH     CLKL,1,**
      00371 -0320 00 0 00423         ANA     =O777777      USE LAST ENTRY IN TABLE  
      00372  0602 00 0 00234         SLW     NEWINT        FOR NEW SETTING    
      00373  0500 00 0 00421         CLA     TMLEFT        REVISE TOTAL TIME  
      00374  0402 00 0 00237         SUB     LSTSET        LEFT FOR JOB.
      00375  0601 00 0 00421         STO     TMLEFT   
      00376 -0500 00 0 00234         CAL     NEWINT        UPDATE LSTSET AND  
      00377  0602 00 0 00237         SLW     LSTSET        CHANGE SETTING OF  
      00400  0760 00 0 00006         COM                   LOCATION 5 TO NEXT 
      00401  0601 00 0 00005         STO     CLKRD         ENTRY IN THE TABLE.
                              *              RESTORE MACHINE CONDITIONS 
                       00402   CLKN  SYN     *                                                       A
      00402  0767 00 0 00002         ALS     2   TURN ON OVERFLOW LIGHT 
      00403  0500 00 0 00416         CLA     SPQ
      00404  0767 00 0 00002         ALS     2   RESTORE +, Q, AND S    
      00405 -0501 00 0 00417         ORA     LOGAC    
      00406 -0520 00 0 00415         NZT     OVFL     
1            FAP                                                                                 PAGE 7     
                  
      00407  0140 00 0 00410         TOV     *+1
      00410  0560 00 0 00420         LDQ     MQ 
      00411  0774 00 1 00000   CL1   AXT     **,1          RESTORE INDEX REGISTERS  
      00412  0774 00 2 00000   CL2   AXT     **,2     
      00413  0774 00 4 00000   CL4   AXT     **,4     
      00414  0021 00 0 00000   TRAD  TTR     ** 
      00415  0 00000 0 00000   OVFL 
      00416  0 00000 0 00000   SPQ  
      00417  0 00000 0 00000   LOGAC
      00420  0 00000 0 00000   MQ   
      00421  0 00000 0 00000  TMLEFT PZE  
                                     END  
                  
        LITERALS  
      00422  000000077777     
      00423  000000777777     
      00424  234346234626     
      00425  234346234645     
1            FAP                                                                                 PAGE 1     
                        POST PROCESSOR ASSEMBLY DATA  
                  
        426 IS THE FIRST LOCATION NOT USED BY THIS PROGRAM  
                  
0REFERENCES TO DEFINED SYMBOLS      
         12      N   150,  166,  240,  252,  276,  363
        420     MQ   330,  342,  410
        411    CL1   331,  335
        412    CL2   332,  336
        413    CL4   333,  337
         60    JT4    35,   40,   55
        315    RTN   265
        416    SPQ   323,  345,  403
         23    TM2      
        151   CLK1   155
        155   CLK2   140
        167   CLK3   176
        175   CLK4   172
        176   CLK5   164
        206   CLK6   212
        211   CLK7   205
        212   CLK8   165
        214   CLK9   201
        364   CLKL   370
        370   CLKM   362
        402   CLKN   360,  402
        121   NEWT   106,  112
        252   NTBL     7,   12,  136,  163,  215,  260,  274,  350,  361
        415   OVFL   326,  341,  347,  406
        236   PRFX    42,   53,   67,   72,  111,  114,  131,  133,  263,  264
        102   RSC1    77
        277   RTNL   303
        303   RTNM   275
         76   RUNR    64,   71
        202   SMLR   174
        107   STP1   104
         27   STRT     6
        235   TEMP   162,  177,  203
          2   TIME    37,  124,  256
         65   TML1    62
         26   TRA7    13
        414   TRAD   354
        230  CLK10   126
        231  CLK11   122,  127
          5  CLKRD     2,   17,   44,  141,  142,  220,  226,  266,  314,  401
        120  CNTRL   101,  113
        335  FROM7    26,  335
         34  GOMON    27
         35  JOBTM     0,   63,  100,  105
        316  KILL1   253
        317  KILL4   254
        417  LOGAC   325,  343,  405
        122  TIMER     0
         31  TIMET    24,   36,  123,  255
        252  TMTBL    10,  151,  153,  167,  200,  202,  204,  206,  207,  213,  262,  277,  301,  352,  364,  366
        227 CLK10A   137
1            FAP                                                                                 PAGE 2     
                        POST PROCESSOR ASSEMBLY DATA  
                  
          6 CLKLOC     2
          7 CLKTRA     2,   14
         33 CLOCOF    43,  125,  257,  340
         32 CLOCON    21,   57,  227,  315
         30 JOBTIM     3,   51,   70
        253 KILLTR     0
        237 LSTSET     5,   50,  146,  224,  272,  273,  300,  307,  312,  365,  374,  377
        234 NEWINT   135,  161,  171,  305,  311,  372,  376
         77 RSCLCK     0,   77
        321 RSTRTN     0,   34,  321
        104 STOPCL     0,  104
         62 TIMLFT     0,   62
        421 TMLEFT     4,   15,   52,  216,  221,  306,  310,  373,  375
        233 TMUSED   147,  152,  217
                  
0 NO ERROR IN ABOVE ASSEMBLY. 




  TLCK   BCD 05/29/67 0009.3     166         00000    
1                                                                                                PAGE 1     
                  
                       00000         ENTRY   TILOCK   
                       00001         ENTRY   FERRTN   
      00000  0101 00 0 00003  TILOCK TIA     =HTILOCK 
      00001  0101 00 0 00002  FERRTN TIA     =HFERRTN 
                                     END  
                  
        LITERALS  
      00002  262551516345     
      00003  633143462342     
1                                                                                                PAGE 1     
                        POST PROCESSOR ASSEMBLY DATA  
                  
          4 IS THE FIRST LOCATION NOT USED BY THIS PROGRAM  
                  
0REFERENCES TO DEFINED SYMBOLS      
          1 FERRTN     0
          0 TILOCK     0
                  
0 NO ERROR IN ABOVE ASSEMBLY. 




  TRAN   BCD 05/29/67 0010.1     855         00000    
1           LABEL                                                                                PAGE 1     
                  
                              *      FAP  
                              *TRANSP        TRANSPOSED MATRIX SUBSCRIPTION   
                       00033         ENTRY   TRANSP   
                       00002         ENTRY   (SUBS         CHECKING PROCEEDURE FOR SPECIAL SUBSCRIPTS 
                       00002         ENTRY   .SUBS    
                       00002         ENTRY   .03310        SECONDARY ENTRIES TO PREVENT   
                       00002         ENTRY   .03311        DUPLICATION IN CORE.     
                  
            LINKAGE DIRECTOR  
      00000  000000000000     
      00001  635121456247     
                  
      00002  0601 00 0 00026  (SUBS  STO     I  
                       00002  .03310 SYN     (SUBS    
                       00002  .03311 SYN     (SUBS    
                       00002  .SUBS  SYN     (SUBS    
      00003 -0600 00 0 00027         STQ     J  
      00004  0634 00 1 00060         SXA     IR1,1    
      00005  0500 00 4 00001         CLA     1,4
      00006  0601 00 0 00020         STO     L1 
      00007  0771 00 0 00022         ARS     18 
      00010  0621 00 0 00047         STA     L4 
      00011  0621 00 0 00053         STA     L5 
      00012  0621 00 0 00013         STA     *+1
      00013  0500 00 0 00000         CLA     **            PICK UP FIRST D.V. ELEMENT     
      00014  0120 00 0 00042         TPL     L2            TRANSFER FOR (03310 OR (03311  
      00015 -0634 00 4 00041         SXD     IR4,4    
      00016  0621 00 0 00017         STA     *+1           SET CALL FOR ROUTINE DESIRED   
      00017  0074 00 4 00000         TSX     **,4          PERFORM SUBSCRIPTION CALCULATION.    
      00020  0 00000 0 00000  L1     PZE  
      00021  3 00000 0 00026         TXH     I,,0     
      00022  3 00000 0 00027         TXH     J,,0     
      00023 -0534 00 4 00041         LXD     IR4,4    
      00024  0534 00 1 00060         LXA     IR1,1    
      00025  0020 00 4 00002         TRA     2,4
      00026  0 00000 0 00000  I      PZE  
      00027  0 00000 0 00000  J      PZE  
      00030  0 00000 0 00001  AE1    PZE     1  
      00031  0 00002 0 00003  IR     PZE     3,,2     
      00032  0 00000 0 00000  SAVE   PZE  
      00033  0500 00 0 00027  TRANSP CLA     J             TRANSPOSED MATRIX SUBSCRIPTION-ENTER HERE  
      00034  0560 00 0 00026         LDQ     I  
      00035 -0600 00 0 00027         STQ     J  
      00036  0601 00 0 00026         STO     I  
      00037  0634 00 1 00060         SXA     IR1,1    
      00040  0534 00 1 00031         LXA     IR,1     
      00041 -3 00000 0 00044  IR4    TXL     L3,,**   
      00042 -0534 00 1 00031  L2     LXD     IR,1     
      00043  0500 00 0 00026         CLA     I  
      00044  0402 00 0 00030  L3     SUB     AE1
      00045  0601 00 0 00032         STO     SAVE     
      00046  0560 00 0 00032         LDQ     SAVE     
      00047  0200 00 1 00000  L4     MPY     **,1     
      00050 -0600 00 0 00032         STQ     SAVE     
      00051  0500 00 0 00032         CLA     SAVE     
      00052  1 77777 1 00053         TXI     *+1,1,-1 
1           LABEL                                                                                PAGE 2     
                  
      00053  0400 00 1 00000  L5     ADD     **,1     
      00054  0400 00 0 00027         ADD     J  
      00055  0402 00 0 00030         SUB     AE1           (I-1)N+B+(J-1) LINEAR SUBSCRIPT.     
      00056  0534 00 1 00060         LXA     IR1,1    
      00057  0020 00 4 00002         TRA     2,4
      00060  0 00000 0 00000  IR1    PZE  
                                     END  
1           LABEL                                                                                PAGE 1     
                        POST PROCESSOR ASSEMBLY DATA  
                  
         61 IS THE FIRST LOCATION NOT USED BY THIS PROGRAM  
                  
0REFERENCES TO DEFINED SYMBOLS      
         26      I     2,   21,   34,   36,   43
         27      J     3,   22,   33,   35,   54
         31     IR    40,   42
         20     L1     6
         42     L2    14
         44     L3    41
         47     L4    10
         53     L5    11
         30    AE1    44,   55
         60    IR1     4,   24,   37,   56
         41    IR4    15,   23
         32   SAVE    45,   46,   50,   51
          2  .SUBS     0,    3
          2  (SUBS     0,    3
          2 . 3310     0,    3
          2 . 3311     0,    3
         33 TRANSP     0
                  
0 NO ERROR IN ABOVE ASSEMBLY. 




  TRFL   BCD 05/29/67 0010.1     135         00000    
1                                                                                                PAGE 1     
                  
                       00000         ENTRY   TRFILE   
      00000  0101 00 0 00001  TRFILE TIA     =HTRFILE 
                                     END  
                  
        LITERALS  
      00001  635126314325     
1                                                                                                PAGE 1     
                        POST PROCESSOR ASSEMBLY DATA  
                  
          2 IS THE FIRST LOCATION NOT USED BY THIS PROGRAM  
                  
0REFERENCES TO DEFINED SYMBOLS      
          0 TRFILE     0
                  
0 NO ERROR IN ABOVE ASSEMBLY. 




  TSH0   BCD 05/29/67 0010.1    3022         00000    
1            FAP                                                                                 PAGE 1     
                  
                              * (TSH), .TAPRD, (TSHM)    FOR FOREGROUND. MODIFIED FOR MICHIGAN I/O    
                              *               FEBRUARY 1965 SPALL FIX AC LITE AND CLEAN UP
                                             WRITE-AROUND TO DISK ROUTINES FOR FORTRAN-TYPE I/O 
                                             (TSH) FROM DISK
                                             TSH CHECKS FOR LINE MARKER.
                                             IF PRESENT, READS VARIABLE LNNGTH LINE.
                                             IF MISSING, READS 14 WORD RECORDS.     
                  
                                             MODIFIED FOR NEW FILE SYSTEM JUNE 65  EMK    
                  
  BINARY CARD NO. TSH00000    
                       00010         ENTRY   (TSH)    
                       00010         ENTRY   (TSHM)   
                       00056         ENTRY   .TAPRD   
                  
                  
                  
        TRANSFER VECTOR 
                  
  BINARY CARD NO. TSH00001    
      00000  622525426060     SEEK  
      00001  743146303460     (IOH) 
      00002  222651252124     BFREAD
      00003  624521476060     SNAP  
      00004  254524512460     ENDRD 
      00005  254626673163     EOFXIT
                  
            LINKAGE DIRECTOR  
      00006  000000000000     
      00007  746362303460     
                  
                       00010  (TSH)  SYN     *  
                       00010  (TSHM) SYN     (TSH)    
      00010 -0765 00 0 00066         LGR     36+18         TAPE NO IN MQ ADDRESS    
      00011  0600 00 0 00254         STZ     MADTST   
      00012  0634 00 4 00024  CALLDK SXA     INIT,4   
      00013 -0634 00 4 00006         SXD     (TSH)-2,4
      00014  0074 00 4 00225         TSX     INTBC,4       CONVERT TO BCD     
      00015  0 00000 0 00256         PZE     FILNAM+1 
      00016 -0500 00 0 00132         CAL     MODE1    
      00017  0602 00 0 00141         SLW     BRNCH1   
      00020 -0500 00 0 00133         CAL     MODE2    
      00021  0602 00 0 00142         SLW     BRNCH2   
                                             GO CHECK IF ACTIVE, AND IF NOT, ACTIVATE.    
      00022  0074 00 4 00000         TSX     $SEEK,4  
      00023  0 00000 0 00255                 FILNAM   
                  
  BINARY CARD NO. TSH00002    
      00024  0774 00 4 00000   INIT  AXT     **,4     
      00025  0520 00 0 00254         ZET     MADTST   
      00026  0020 00 0 00073         TRA     SETRTN   
      00027 -0500 00 4 00001         CAL     1,4
      00030  0560 00 0 00257         LDQ     FORT     
      00031  0634 00 4 00046         SXA     JN21,4   
      00032 -0634 00 4 77740         SXD     RTN,4    
      00033  0600 00 0 00000         STZ     0  
1            FAP                                                                                 PAGE 2     
                  
      00034  1 77776 4 00035         TXI     *+1,4,-2 
      00035  0636 00 4 00000         SCA     0,4
      00036 -0734 00 4 00000         PDX     0,4           IS DECREMENT ZERO  
      00037 -3 00000 4 00046         TXL     JN21,4,0      FORTRAN, BACKWARDS 
      00040 -0600 00 0 00264         STQ     TEMP     
      00041 -0130 00 0 00000         XCL  
      00042 -0500 00 0 00261         CAL     UMAP          -1 IN DECR. SET FOR FORWARDS   
      00043  0622 00 0 00264         STD     TEMP     
      00044 -0130 00 0 00000         XCL  
      00045  0560 00 0 00264         LDQ     TEMP     
      00046  0774 00 4 00000   JN21  AXT     **,4     
      00047 -0600 00 0 77737         STQ     FMT
                  
  BINARY CARD NO. TSH00003    
      00050  0621 00 0 77740         STA     RTN
      00051 -0500 00 0 00262         CAL     MAD
      00052  0630 00 0 77740         STP     RTN
      00053 -0500 00 0 00260         CAL     TPCNT    
      00054  0602 00 0 77741         SLW     COL
      00055  0020 60 0 00001         TRA*    $(IOH)   
                              *     
                              *              .TAPRD     ENTRY FROM MAD READ BCD TAPE
                              *     
                       00056  .TAPRD SYN     *  
      00056 -0500 00 0 00002         CAL     2  
      00057  0602 00 0 00263         SLW     2SAVE    
      00060  0560 00 0 00064         LDQ     .TR
      00061 -0600 00 0 00002         STQ     2  
      00062 -0634 00 4 77740         SXD     RTN,4         SAVE CALLER LOC. IN RTN  
      00063  0020 00 4 00001         TRA     1,4
                              *              BACK HERE FOR TAPE NUMBER  
      00064  0020 00 0 00065   .TR   TRA     *+1
      00065 -0500 00 0 00000         CAL     0             TAPE ENTRY   
      00066  0402 00 0 00270         SUB     =1 
      00067  0621 00 0 00070         STA     *+1           GO BACK AND GET THE
      00070  0560 60 0 00000         LDQ*    **            TAPE NUMBER  
      00071 -0625 00 0 00254         STL     MADTST   
      00072  0020 00 0 00012         TRA     CALLDK   
      00073  0560 00 0 00076  SETRTN LDQ     T1            SET RETURN FOR     
                  
  BINARY CARD NO. TSH00004    
      00074 -0600 00 0 00002         STQ     2             FORMAT STATEMENT.  
      00075  0020 60 0 00000         TRA*    0  
                              *     
      00076  0020 00 0 00077   T1    TRA     *+1
      00077  0634 00 4 00107         SXA     T4,4     
      00100  0535 00 4 00000         LAC     0,4           GET FORMAT   
      00101 -0500 00 4 77777         CAL     -1,4          PARAMETER.   
      00102 -0734 00 4 00000         PDX     0,4           IS FORMAT BACKWARD 
      00103  0560 00 0 00262         LDQ     MAD           (D .NE. 0)   
      00104  3 00000 4 00106         TXH     *+2,4,0       OR     
      00105  0560 00 0 00261         LDQ     UMAP          FORWARD (D .E. 0)  
      00106  3 00001 4 00117         TXH     SYT,4,1  
      00107  0774 00 4 00000   T4    AXT     **,4     
      00110 -0600 00 0 00264         STQ     TEMP     
      00111 -0130 00 0 00000         XCL  
1            FAP                                                                                 PAGE 3     
                  
      00112 -0500 00 0 00257         CAL     FORT     
      00113  0621 00 0 00264         STA     TEMP     
      00114 -0130 00 0 00000         XCL  
      00115  0560 00 0 00264         LDQ     TEMP     
      00116  0020 00 0 00047         TRA     JN21+1   
                              *     
                              *              TEST FOR SYMBOL TABLE
      00117  0560 00 0 00262   SYT   LDQ     MAD
                  
  BINARY CARD NO. TSH00005    
      00120  0625 00 0 00265         STT     TGTMP    
      00121 -0520 00 0 00265         NZT     TGTMP    
      00122  0560 00 0 00261         LDQ     UMAP     
      00123  0734 00 4 00000         PAX     0,4
      00124  0600 00 0 77771         STZ     STLOC    
      00125  0634 00 4 77771         SXA     STLOC,4  
      00126 -0734 00 4 00000         PDX     0,4
      00127  0754 00 4 00000         PXA     0,4
      00130  0020 00 0 00107         TRA     T4 
                              *     
                  
      00131  0 00000 0 00000  CNTRL 
 TD   00132  3 00000 0 00211  MODE1  TXH     VARLIN   
 TD   00133  3 00000 0 00173  MODE2  TXH     FIXLIN   
                  
      00134  0634 00 4 00171  TSH    SXA     TSHX,4   
      00135  0774 00 4 00026         AXT     22,4          BLANKS OUT INPUT BUFFER  
      00136 -0500 00 0 00273         CAL     =H            ..     
      00137  0602 00 4 77770         SLW     REC+22,4 
      00140  2 00001 4 00137         TIX     *-1,4,1  
 TD   00141  3 00000 0 00211  BRNCH1 TXH     VARLIN   
 TD   00142  3 00000 0 00173  BRNCH2 TXH     FIXLIN   
      00143  0074 00 4 00002         TSX     $BFREAD,4
                  
  BINARY CARD NO. TSH00006    
      00144  3 00000 0 00255         PTH     FILNAM   
      00145  3 00000 0 00256         PTH     FILNAM+1 
      00146  3 00001 0 00131         PTH     CNTRL,,1 
      00147  3 00000 0 00221         PTH     NDFILA   
      00150  3 00000 0 00266         PTH     EOFCT    
      00151  3 00000 0 00003         PTH     $SNAP    
      00152 -0500 00 0 00131         CAL     CNTRL    
      00153 -0765 00 0 00022         LGR     18 
      00154  0322 00 0 00272         ERA     =O777777 
      00155  0100 00 0 00175         TZE     NORMAL   
      00156 -0500 00 0 00131         CAL     CNTRL    
      00157  0602 00 0 77742         SLW     REC
      00160  0074 00 4 00002         TSX     $BFREAD,4
      00161  3 00000 0 00255         PTH     FILNAM   
      00162  3 00000 0 00256         PTH     FILNAM+1 
      00163  3 00015 0 77743         PTH     REC+1,,13
      00164  3 00000 0 00221         PTH     NDFILA   
      00165  3 00000 0 00266         PTH     EOFCT    
      00166  3 00000 0 00003         PTH     $SNAP    
      00167  0502 00 0 00142         CLS     BRNCH2   
1            FAP                                                                                 PAGE 4     
                  
  BINARY CARD NO. TSH00007    
      00170  0601 00 0 00142         STO     BRNCH2   
      00171  0774 00 4 00000  TSHX   AXT     **,4     
      00172  0020 00 4 00001         TRA     1,4
                  
      00173  0774 00 4 00016  FIXLIN AXT     14,4     
      00174  0020 00 0 00200         TRA     VAR1+1   
                  
      00175  0502 00 0 00141  NORMAL CLS     BRNCH1   
      00176  0601 00 0 00141         STO     BRNCH1   
      00177  0534 00 4 00131  VAR1   LXA     CNTRL,4  
      00200 -0634 00 4 00204         SXD     CT,4     
      00201  0074 00 4 00002  READ   TSX     $BFREAD,4
      00202  3 00000 0 00255         PTH     FILNAM   
      00203  3 00000 0 00256         PTH     FILNAM+1 
      00204  3 00000 0 77742  CT     PTH     REC,,**  
      00205  3 00000 0 00221         PTH     NDFILA   
      00206  3 00000 0 00266         PTH     EOFCT    
      00207  3 00000 0 00003         PTH     $SNAP    
      00210  0020 00 0 00171         TRA     TSHX     
                  
      00211  0074 00 4 00002  VARLIN TSX     $BFREAD,4
      00212  3 00000 0 00255         PTH     FILNAM   
      00213  3 00000 0 00256         PTH     FILNAM+1 
                  
  BINARY CARD NO. TSH00008    
      00214  3 00001 0 00131         PTH     CNTRL,,1 
      00215  3 00000 0 00221         PTH     NDFILA   
      00216  3 00000 0 00266         PTH     EOFCT    
      00217  3 00000 0 00003         PTH     $SNAP         ERROR RETURN 
      00220  0020 00 0 00177         TRA     VAR1     
                  
      00221  0074 00 4 00004  NDFILA TSX     $ENDRD,4      GO DROP FILE FROM BTB/FTB TABLES     
      00222  0 00000 0 00255                 FILNAM   
      00223  0074 00 4 00005         TSX     $EOFXIT,4
      00224  0 00000 0 00255                 FILNAM   
                  
      00225  0634 00 1 00250  INTBC  SXA     IX1,1    
      00226  0600 00 0 00267         STZ     ACLITE   
      00227 -0140 00 0 00231         TNO     *+2
      00230 -0625 00 0 00267         STL     ACLITE   
      00231  0600 60 4 00001         STZ*    1,4
      00232  0774 00 1 00044         AXT     36,1     
      00233 -0754 00 0 00000  RR     ZAC  
      00234  0221 00 0 00271         DVP     =10
      00235  0767 00 1 00044         ALS     36,1     
      00236 -0602 60 4 00001         ORS*    1,4
      00237  2 00006 1 00233         TIX     RR,1,6   
                  
  BINARY CARD NO. TSH00009    
      00240 -0500 60 4 00001         CAL*    1,4
      00241  0774 00 1 00044         AXT     36,1     
      00242 -2 00006 1 00246  RT     TNX     RS,1,6   
      00243 -0765 00 0 00006         LGR     6  
      00244 -0100 00 0 00242         TNZ     RT 
      00245 -0500 00 0 00273         CAL     =H 
1            FAP                                                                                 PAGE 5     
                  
      00246 -0763 00 1 00044  RS     LGL     36,1     
      00247  0602 60 4 00001         SLW*    1,4
      00250  0774 00 1 00000  IX1    AXT     **,1     
      00251 -0520 00 0 00267         NZT     ACLITE   
      00252  0140 00 0 00253         TOV     *+1
      00253  0020 00 4 00002         TRA     2,4
                  
                  
      00254  0 00000 0 00000  MADTST
                  
      00255  336321472533     FILNAM BCI     1,.TAPE. 
      00256  0 00000 0 00000         PZE  
                       00026  BUFSIZ EQU     22 
      00257 -3 00001 0 00134   FORT  TXL     TSH,,1   
      00260  3 00204 0 00000   TPCNT TXH     ,,132    
      00261  3 77777 0 00000   UMAP  TXH     **,,-1   
      00262  3 00001 0 00000   MAD   TXH     **,,1    
      00263  0 00000 0 00000   2SAVE
                  
  BINARY CARD NO. TSH00010    
      00264  0 00000 0 00000   TEMP 
      00265  0 00000 0 00000   TGTMP
      00266  0 00000 0 00000  EOFCT  PZE  
      00267                   ACLITE BSS     1           ZERO IF AC LITE WAS OFF - J WOOD 1 FEB 1965  
                              *     
                              *     
                              *     
                       00026  RECLEN EQU     22 
                       77771         COMMON  -200     
                       77771   STLOC COMMON  1  
                       77742         COMMON  RECLEN   
                       77742   REC   COMMON  1  
                       77741   COL   COMMON  1  
                       77740   RTN   COMMON  1  
                       77737   FMT   COMMON  1  
                       77742  BUF    SYN     REC
                                     END  
                  
        LITERALS  
                  
  BINARY CARD NO. TSH00011    
      00270  000000000001     
      00271  000000000012     
      00272  000000777777     
      00273  606060606060     
1            FAP                                                                                 PAGE 1     
                        POST PROCESSOR ASSEMBLY DATA  
                  
       77736 IS THE LAST LOCATION NOT USED BY THIS PROGRAM  
        274 IS THE FIRST LOCATION NOT USED BY THIS PROGRAM  
                  
0REFERENCES TO DEFINED SYMBOLS      
        204     CT   200
        233     RR   237
        246     RS   242
        242     RT   244
         76     T1    73
        107     T4    77,  130
      77742    BUF   270
      77741    COL    54,  270
      77737    FMT    47,  270
        250    IX1   225
         64    .TR    60
        262    MAD    51,  103,  117
      77742    REC   137,  157,  163,  204,  270
      77740    RTN    32,   50,   52,   62,  270
        117    SYT   106
        134    TSH   257
        257   FORT    30,  112
         24   INIT    12
         46   JN21    31,   37,  116
        201   READ      
          0   SEEK    22
          3   SNAP   151,  166,  207,  217
        264   TEMP    40,   43,   45,  110,  113,  115
        171   TSHX   134,  210
        261   UMAP    42,  105,  122
        177   VAR1   174,  220
        263  2SAVE    57
        131  CNTRL   146,  152,  156,  177,  214
          4  ENDRD   221
        266  EOFCT   150,  165,  206,  216
        225  INTBC    14
        132  MODE1    16
        133  MODE2    20
      77771  STLOC   124,  125,  270
        265  TGTMP   120,  121
        260  TPCNT    53
          1  (IOH)    55
         10  (TSH)     0,   10,   13
        267 ACLITE   226,  230,  251
          2 BFREAD   143,  160,  201,  211
        141 BRNCH1    17,  175,  176
        142 BRNCH2    21,  167,  170
         26 BUFSIZ   257
         12 CALLDK    72
          5 EOFXIT   223
        255 FILNAM    15,   23,  144,  145,  161,  162,  202,  203,  212,  213,  222,  224
        173 FIXLIN   133,  142
         56 .TAPRD     0,   56
        254 MADTST    11,   25,   71
        221 NDFILA   147,  164,  205,  215
1            FAP                                                                                 PAGE 2     
                        POST PROCESSOR ASSEMBLY DATA  
                  
        175 NORMAL   155
         26 RECLEN   270
         73 SETRTN    26
        211 VARLIN   132,  141
         10 (TSHM)     0,   10
                  
0 NO ERROR IN ABOVE ASSEMBLY. 




  TSSF   BCD 05/29/67 0010.1     183         00000    
1            FAP                                                                                 PAGE 1     
                  
                              *      SUBROUTINIZED ENTRIES TO CTSS SUPERVISOR - LP - DEC 63     
                       00000         ENTRY   TSSFIL   
                       00001         ENTRY   USRFIL   
      00000  0101 00 0 00002  TSSFIL TIA     =HTSSFIL 
      00001  0101 00 0 00003  USRFIL TIA     =HUSRFIL 
                                     END  
                  
        LITERALS  
      00002  636262263143     
      00003  646251263143     
1            FAP                                                                                 PAGE 1     
                        POST PROCESSOR ASSEMBLY DATA  
                  
          4 IS THE FIRST LOCATION NOT USED BY THIS PROGRAM  
                  
0REFERENCES TO DEFINED SYMBOLS      
          0 TSSFIL     0
          1 USRFIL     0
                  
0 NO ERROR IN ABOVE ASSEMBLY. 




  UPDM   BCD 05/29/67 0010.1     333         00000    
1            PRIVILEGED FILE SYSTEM ENTRIES TO CTSS.                                             PAGE 1     
                  
                  
                       00003         ENTRY   MOVFIL   
                       00000         ENTRY   UPDMFD   
                       00001         ENTRY   DELMFD   
                       00002         ENTRY   ATTACH   
                       00004         ENTRY   SETFIL   
                       00005         ENTRY   LINK     
                       00006         ENTRY   ALLOT    
                  
      00000  0101 00 0 00015  UPDMFD TIA     =HUPDMFD 
      00001  0101 00 0 00011  DELMFD TIA     =HDELMFD 
      00002  0101 00 0 00010  ATTACH TIA     =HATTACH 
      00003  0101 00 0 00013  MOVFIL TIA     =HMOVFIL 
      00004  0101 00 0 00014  SETFIL TIA     =HSETFIL 
      00005  0101 00 0 00012  LINK   TIA     =HLINK   
      00006  0101 00 0 00007  ALLOT  TIA     =HALLOT  
                  
                                     END  
                  
        LITERALS  
      00007  214343466360     
      00010  216363212330     
      00011  242543442624     
      00012  433145426060     
      00013  444665263143     
      00014  622563263143     
      00015  644724442624     
1            PRIVILEGED FILE SYSTEM ENTRIES TO CTSS.                                             PAGE 1     
                        POST PROCESSOR ASSEMBLY DATA  
                  
         16 IS THE FIRST LOCATION NOT USED BY THIS PROGRAM  
                  
0REFERENCES TO DEFINED SYMBOLS      
          5   LINK     0
          6  ALLOT     0
          2 ATTACH     0
          1 DELMFD     0
          3 MOVFIL     0
          4 SETFIL     0
          0 UPDMFD     0
                  
0 NO ERROR IN ABOVE ASSEMBLY. 




  VREA   BCD 06/25/69 2048.6    4912         00000    
1            FAP                                                                                 PAGE 1     
                  
                              *  VREAD, VWRITE, FWRITE, SETVB, SETVBF   
                              *      READ AND WRITE FIXED LENGTH RECORDS.     
                                             NO FORMAT NEEDED.    
                                             MODIFIED FOR NEW FILE SYSTEM  JUNE 65   EMK  
                  
  BINARY CARD NO. VRED0000    
                       00434         ENTRY   SETVB    
                       00434         ENTRY   SETVBF   
                       00045         ENTRY   VREAD    
                       00204         ENTRY   VWRITE   
                       00333         ENTRY   FWRITE   
                  
                  
        TRANSFER VECTOR 
                  
  BINARY CARD NO. VRED0001    
      00000  274521446060     GNAM  
      00001  234643636060     COLT  
      00002  222651252124     BFREAD
      00003  624521476060     SNAP  
      00004  625123306060     SRCH  
      00005  222666513163     BFWRIT
      00006  665166213163     WRWAIT
      00007  254524266060     ENDF  
      00010  222623434662     BFCLOS
      00011  254626673163     EOFXIT
      00012  665126436760     WRFLX 
      00013  256731636060     EXIT  
                  
            LINKAGE DIRECTOR  
      00014  000000000000     
      00015  622563652260     
                  
                       00014  XR4    SYN     *-2
                       00026  H      EQU     22            LONGEST POSSIBLE LINE LENGTH   
                       00003  L      EQU     3             SHORTEST POSSIBLE LINE LENGTH  
                  
                       00016  INIT   SYN     *  
      00016 -0634 00 4 00014         SXD     XR4,4    
      00017  0600 00 0 00474         STZ     FTNSW    
      00020  0634 00 2 00330         SXA     X4+1,2         SAVE XRS    
      00021  0634 00 1 00043         SXA     I1,1     
      00022  0074 00 4 00000         TSX     $GNAM,4       GET FILE NAME
      00023  0 00000 0 00014         PZE     XR4
                  
  BINARY CARD NO. VRED0002    
      00024  0 00000 0 00532         PZE     FILNAM   
      00025  0100 00 0 00036         TZE     FAP           AC HAS CODE FOR CALLING PROGRAM TYPE 
      00026  0402 00 0 00535         SUB     =1            1=FAP  
      00027  0100 00 0 00036         TZE     FAP
      00030  0402 00 0 00535         SUB     =1            2=FORTRAN    
      00031  0100 00 0 00034         TZE     FRTRN    
      00032  0601 00 0 00473         STO     MADSW         3=MAD, SET MAD SWITCH    
      00033  0020 00 0 00036         TRA     FAP
      00034  0500 00 0 00535   FRTRN CLA     =1            SET FORTRAN SWITCH 
      00035  0601 00 0 00474         STO     FTNSW    
1            FAP                                                                                 PAGE 2     
                  
      00036  0074 00 4 00001   FAP   TSX     $COLT,4       COUNT ARGUMENTS    
      00037  0 00000 0 00014         PZE     XR4
      00040  0636 00 4 00332         SCA     IOEXT,4  
      00041  0636 00 4 00145         SCA     BIB1,4   
      00042  0636 00 4 00236         SCA     BGEW,4   
      00043  0774 00 1 00000   I1    AXT     **,1     
      00044  0020 00 1 00001         TRA     1,1
                  
                       00045  VREAD  SYN     *  
      00045  0634 00 1 00331         SXA     X4+2,1   
      00046  0074 00 1 00016         TSX     INIT,1        INITIATE     
      00047 -0734 00 2 00000         PDX     ,2 
                  
  BINARY CARD NO. VRED0003    
      00050 -3 00000 2 00423         TXL     CERR,2,0 
      00051 -3 00001 2 00327         TXL     X4,2,1   
      00052 -0500 60 0 00001         CAL*    $COLT         SET UP TO USE UTILITY ROUTINES 
      00053  0621 00 0 00471         STA     SELAR         SELAR AND MDL
      00054  0771 00 0 00022         ARS     18 
      00055  0 00000 0 00000  EOFCT  PZE  
      00056  0621 00 0 00470         STA     MDL
      00057  0600 00 0 00472         STZ     EOF           CLEAR EOF SWITCH   
      00060  0600 00 0 00475         STZ     WC            ZERO WORD COUNT    
      00061  0774 00 1 00027         AXT     H+1,1    
      00062 -0500 00 0 00540         CAL     =H            BLANK OUT READ BUFFER    
      00063  0602 00 1 00532         SLW     REC+H+1,1
      00064  2 00001 1 00063         TIX     *-1,1,1  
      00065  0074 00 4 00002  BIBLE  TSX     $BFREAD,4     READ FIRST WORD OF RECORD
      00066  3 00000 0 00532         PTH     FILNAM   
      00067  3 00000 0 00533         PTH     FILNAM+1 
      00070  3 00001 0 00502         PTH     CNTRL,,1 
      00071  3 00000 0 00377         PTH     C  
      00072  3 00000 0 00055         PTH     EOFCT    
      00073  3 00000 0 00003         PTH     $SNAP    
                  
  BINARY CARD NO. VRED0004    
      00074 -0500 00 0 00502         CAL     CNTRL    
      00075 -0765 00 0 00022         LGR     18 
      00076  0322 00 0 00537         ERA     =O777777      IS THIS WORD A CONTROL WORD    
      00077  0100 00 0 00124         TZE     NORMAL        YES    
      00100 -0534 00 1 00467         LXD     BSIZ,1        NO.  GET FIXED RECORD SIZE     
      00101  1 77777 1 00102         TXI     *+1,1,-1 
      00102 -0634 00 1 00112         SXD     BSZ2,1   
      00103 -0500 00 0 00535         CAL     =1 
      00104  0602 00 0 00475         SLW     WC 
      00105 -0500 00 0 00502         CAL     CNTRL         PUT FIRST WORD IN FIRST  
      00106  0602 00 0 00503         SLW     REC           LOCATION OF READ BUFFER  
      00107  0074 00 4 00002         TSX     $BFREAD,4     READ REMAINDER OF RECORD 
      00110  3 00000 0 00532         PTH     FILNAM   
      00111  3 00000 0 00533         PTH     FILNAM+1 
      00112  3 00000 0 00504  BSZ2   PTH     REC+1,,**
      00113  3 00000 0 00377         PTH     C  
      00114  3 00000 0 00055         PTH     EOFCT    
      00115  3 00000 0 00003         PTH     $SNAP    
      00116 -0534 00 4 00112         LXD     BSZ2,4        NO. OF WORDS READ  
      00117  0754 00 4 00000         PXA     ,4 
1            FAP                                                                                 PAGE 3     
                  
  BINARY CARD NO. VRED0005    
      00120  0400 00 0 00475         ADD     WC 
      00121 -0760 00 0 00003         SSM  
      00122  0601 00 0 00475         STO     WC            MINUS MEANS FIXED LENGTH RECORD
      00123  0020 00 0 00140         TRA     BIB-2    
      00124  0534 00 1 00502  NORMAL LXA     CNTRL,1  
      00125 -3 00026 1 00127         TXL     *+2,1,22 
      00126  0774 00 1 00026         AXT     22,1     
      00127 -0634 00 1 00133         SXD     WCNT,1        READ INDICATED NUMBER OF WORDS 
      00130  0074 00 4 00002         TSX     $BFREAD,4
      00131  3 00000 0 00532         PTH     FILNAM   
      00132  3 00000 0 00533         PTH     FILNAM+1 
      00133  3 00000 0 00503  WCNT   PTH     REC,,**  
      00134  3 00000 0 00377         PTH     C  
      00135  3 00000 0 00055         PTH     EOFCT    
      00136  3 00000 0 00003         PTH     $SNAP    
      00137  0634 00 1 00475         SXA     WC,1          NO. OF WORDS READ  
      00140  0774 00 4 00000         AXT     0,4           PREPARE TO MOVE WORDS FROM BUFFER TO ARGS  
      00141  1 77777 2 00142         TXI     *+1,2,-1 
      00142 -0634 00 0 00176  BIB    ZSD     TXI
      00143  0500 00 0 00465         CLA     TXHZ     
                  
  BINARY CARD NO. VRED0006    
      00144  0601 00 0 00177         STO     TXHL     
      00145 -0500 00 2 00000  BIB1   CAL     **,2     
      00146  0621 00 0 00172         STA     HEDLIS   
      00147 -0520 00 0 00473         NZT     MADSW         IS THIS MAD CALLING
      00150  0020 00 0 00170         TRA     SINGAR        NO     
      00151  0774 00 1 00153         AXT     *+2,1    
      00152  0020 60 0 00471         TRA*    SELAR         IS THIS MAD LIST ARGUMENT
      00153 -3 00003 1 00170         TXL     SINGAR,1,3    NO     
      00154 -0500 60 0 00145         CAL*    BIB1     
      00155  0074 00 1 00470         TSX     MDL,1         LIST INSPECTION    
      00156  0734 00 1 00000         PAX     ,1            XR1=NO. WORDS IN LIST = N
 D    00157 -3 00000 1 00170         TXL     SINGAR,1      NO LIST
      00160  0630 00 0 00177         STP     TXHL     
      00161  0120 00 0 00165         TPL     FORDR         PREFIX TXH..FORWARD
      00162  1 77777 1 00163         TXI     *+1,1,-1 
      00163 -0634 00 1 00177         SXD     TXHL,1        N-1    
      00164  0020 00 0 00166         TRA     *+2
      00165 -0636 00 1 00177  FORDR  SCD     TXHL,1        -N     
      00166 -0734 00 1 00000         PDX     ,1            DECREMENT=-1..FORWARD,  =1..BACKWARD 
      00167 -0634 00 1 00176         SXD     TXI,1    
                  
  BINARY CARD NO. VRED0007    
      00170  0774 00 1 00000  SINGAR AXT     ,1 
      00171 -0500 00 4 00503         CAL     REC,4         MOVE WORDS   
      00172  0602 00 1 00000  HEDLIS SLW     **,1          INTO ARGUMENT LIST 
      00173  1 77777 4 00174         TXI     *+1,4,-1      BUFFER EMPTY 
      00174  3 00026 4 00176  N1     TXH     TXI,4,22 
      00175  0020 00 0 00201         TRA     OUT           YES    
      00176  1 00000 1 00177  TXI    TXI     *+1,1,**      NO     
      00177  3 00000 1 00171  TXHL   TXH     HEDLIS-1,1,** MORE ARGUMENTS IN LIST   
      00200  2 00001 2 00142  TERM   TIX     BIB,2,1  
      00201  0520 00 0 00472  OUT    ZET     EOF           HAS END OF FILE BEEN READ
      00202  0020 00 0 00414         TRA     E             YES    
1            FAP                                                                                 PAGE 4     
                  
      00203  0020 00 0 00324         TRA     X41           NO. RETURN   
                  
                       00204  VWRITE SYN     *  
      00204  0634 00 1 00331         SXA     X4+2,1   
      00205  0600 00 0 00500         STZ     FIX           ZERO FIXED LENGTH RECORD INDICATOR   
      00206  0600 00 0 00475         STZ     WC            ZERO WORD COUNT    
      00207  0600 00 0 00501         STZ     BF            BUFFER OR DIRECT CALL SWITCH.  
      00210  0074 00 1 00016         TSX     INIT,1        INITIATE     
      00211 -0734 00 2 00000         PDX     ,2 
      00212 -3 00000 2 00423         TXL     CERR,2,0 
      00213 -3 00001 2 00327         TXL     X4,2,1   
                  
  BINARY CARD NO. VRED0008    
      00214  0074 00 4 00004         TSX     $SRCH,4  
      00215  0 00000 0 00532         PZE     FILNAM   
      00216  0020 00 0 00220         TRA     *+2
      00217  0120 00 0 00221         TPL     *+2
      00220 -0625 00 0 00501         STL     BF 
      00221 -0500 60 0 00001         CAL*    $COLT    
      00222  0621 00 0 00471         STA     SELAR    
      00223  0771 00 0 00022         ARS     18 
      00224  0621 00 0 00470         STA     MDL
      00225  0774 00 1 00026         AXT     H,1
      00226 -0500 00 0 00540         CAL     =H            BLANK WRITE BUFFER 
      00227  0602 00 1 00532         SLW     REC+H+1,1
      00230  2 00001 1 00227         TIX     *-1,1,1  
      00231  0774 00 1 00026         AXT     H,1
      00232  1 77777 2 00233         TXI     *+1,2,-1 
      00233  0634 00 1 00261  BLST1  SXA     IOARG-2,1     INTO WRITE BUFFER  
      00234  0500 00 0 00466         CLA     TXHLBZ   
      00235  0601 00 0 00267         STO     TXHLB    
      00236 -0500 00 2 00000  BGEW   CAL     **,2     
      00237  0621 00 0 00263         STA     IOARG    
                  
  BINARY CARD NO. VRED0009    
      00240  0774 00 4 00000         AXT     ,4 
      00241 -0520 00 0 00473         NZT     MADSW    
      00242  0020 00 0 00260         TRA     NOLSTB   
      00243  0774 00 1 00245         AXT     *+2,1    
      00244  0020 60 0 00471         TRA*    SELAR         IS THIS MAD LIST ARGUMENT
      00245 -3 00003 1 00260         TXL     NOLSTB,1,3    NO     
      00246 -0500 60 0 00236         CAL*    BGEW     
      00247  0074 00 1 00470         TSX     MDL,1         INSPECT LIST 
      00250  0734 00 4 00000         PAX     ,4            XR4=N=NO. WORDS IN LIST  
      00251  0630 00 0 00267         STP     TXHLB    
      00252  0120 00 0 00256         TPL     BFORD         PREFIX=TXH..FORWARD
      00253  1 77777 4 00254         TXI     *+1,4,-1 
      00254 -0634 00 4 00267         SXD     TXHLB,4       N-1    
      00255  0020 00 0 00257         TRA     *+2
      00256 -0636 00 4 00267  BFORD  SCD     TXHLB,4       -N     
      00257 -0734 00 4 00000         PDX     ,4            DECREMENT=-1,FORWARD..=1,BACKWARD    
      00260 -0634 00 4 00266  NOLSTB SXD     TXIB,4   
      00261  0774 00 1 00000         AXT     **,1     
      00262  0774 00 4 00000         AXT     0,4
      00263  0500 00 4 00000  IOARG  CLA     **,4          MOVE WORDS FROM ARG LIST 
1            FAP                                                                                 PAGE 5     
                  
  BINARY CARD NO. VRED0010    
      00264  0601 00 1 00532         STO     REC+H+1,1     TO WRITE BUFFER    
      00265 -2 00001 1 00272         TNX     VWROUT,1,1     
      00266  1 00000 4 00267  TXIB   TXI     *+1,4,**      GO BACK IF DOT NOTATION  
      00267  3 00000 4 00263  TXHLB  TXH     IOARG,4,**     
      00270  2 00001 2 00233  TERM1  TIX     BLST1,2,1     GO ON TO NEST
      00271  0020 00 0 00277         TRA     THRU          NO MORE ARGUMENTS  
                  
      00272  0520 00 0 00500  VWROUT ZET     FIX           IS THIS FIXED RECORD     
      00273  0020 00 0 00341         TRA     FWR           YES    
      00274  0774 00 1 00026         AXT     H,1           NO     
      00275  0020 00 0 00306         TRA     THRU2    
      00276  0020 00 0 00324         TRA     X41
                  
      00277  0520 00 0 00500  THRU   ZET     FIX           IS THIS FIXED RECORD     
      00300  0020 00 0 00341         TRA     FWR           YES    
      00301  0754 00 1 00000         PXA     ,1            NO     
      00302  0737 00 1 00000         PAC     ,1 
      00303  1 00026 1 00304         TXI     *+1,1,H       NOW MANY WORDS TO WRITE  
      00304  3 00002 1 00306         TXH     *+2,1,L-1
      00305  0774 00 1 00003         AXT     L,1
      00306  0634 00 1 00463  THRU2  SXA     VCNT,1   
      00307  0500 00 0 00463         CLA     VCNT     
                  
  BINARY CARD NO. VRED0011    
      00310  0601 00 0 00503         STO     REC           SET CONTROL WORD   
      00311  0634 00 1 00475         SXA     WC,1          NO. OF WORDS WRITTEN     
      00312  1 00001 1 00313         TXI     *+1,1,1  
      00313 -0634 00 1 00322         SXD     THRU1,1  
      00314 -0634 00 1 00361         SXD     THRU3,1  
      00315  0520 00 0 00501         ZET     BF 
      00316  0020 00 0 00355         TRA     DIRCL1        NEED DIRECT RATHER THAN BUFFERED CALL.     
      00317  0074 00 4 00005         TSX     $BFWRIT,4     WRITE VARIABLE LENGTH RECORD   
      00320  3 00000 0 00532         PTH     FILNAM   
      00321  3 00000 0 00533         PTH     FILNAM+1 
      00322  3 00000 0 00503  THRU1  PTH     REC,,**  
      00323  3 00000 0 00003         PTH     $SNAP         ERROR RETURN 
      00324  0500 00 0 00475  X41    CLA     WC            RETURN WITH WORD COUNT IN AC   
      00325  0520 00 0 00474         ZET     FTNSW    
      00326  0767 00 0 00022         ALS     18 
      00327 -0534 00 4 00014  X4     LXD     XR4,4    
      00330  0774 00 2 00000         AXT     **,2     
      00331  0774 00 1 00000         AXT     **,1     
      00332  0020 00 0 00000  IOEXT  TRA     ** 
                              *     
      00333 -0625 00 0 00500  FWRITE STL     FIX           SET FIXED INDICATOR
                  
  BINARY CARD NO. VRED0012    
      00334  0634 00 1 00331         SXA     X4+2,1   
      00335 -0534 00 1 00467         LXD     BSIZ,1   
      00336 -0634 00 1 00346         SXD     CT,1          SET WORD COUNT FOR WRITE 
      00337 -0634 00 1 00372         SXD     CT2,1    
      00340  0020 00 0 00206         TRA     VWRITE+2 
                       00341  FWR    SYN     *  
      00341  0520 00 0 00501         ZET     BF 
      00342  0020 00 0 00366         TRA     DIRCL2        NEED DIRECT CALL.  
1            FAP                                                                                 PAGE 6     
                  
      00343  0074 00 4 00005         TSX     $BFWRIT,4
      00344  3 00000 0 00532         PTH     FILNAM        BSIZ LONG    
      00345  3 00000 0 00533         PTH     FILNAM+1 
      00346  3 00000 0 00504  CT     PTH     REC+1,,**
      00347  3 00000 0 00003         PTH     $SNAP    
                       00350  FWR1   SYN     *  
      00350  0500 00 0 00346         CLA     CT            RETURN WITH WORD COUNT IN AC   
      00351  0771 00 0 00022         ARS     18 
      00352 -0760 00 0 00003         SSM                   MINUS SIGN MEANS FIXED LENGTH  
      00353  0601 00 0 00475         STO     WC 
      00354  0020 00 0 00324         TRA     X41
                  
      00355  0074 00 4 00006  DIRCL1 TSX     $WRWAIT,4
      00356  3 00000 0 00532         PTH     FILNAM   
      00357  3 00000 0 00533         PTH     FILNAM+1 
                  
  BINARY CARD NO. VRED0013    
      00360  3 00000 0 00534         PTH     =0 
      00361  3 00000 0 00503  THRU3  PTH     REC,,**  
      00362  3 00000 0 00003         PTH     $SNAP         EOF ON WRITE.
      00363  3 00000 0 00055         PTH     EOFCT    
      00364  3 00000 0 00003         PTH     $SNAP         ERROR RETURN 
      00365  0020 00 0 00324         TRA     X41           RETURN TO MAIN FLOW.     
                  
      00366  0074 00 4 00006  DIRCL2 TSX     $WRWAIT,4
      00367  3 00000 0 00532         PTH     FILNAM   
      00370  3 00000 0 00533         PTH     FILNAM+1 
      00371  3 00000 0 00534         PTH     =0 
      00372  3 00000 0 00504  CT2    PTH     REC+1,,**
      00373  3 00000 0 00003         PTH     $SNAP         EOF ON WRITE 
      00374  3 00000 0 00055         PTH     EOFCT    
      00375  3 00000 0 00003         PTH     $SNAP         ERROR RETURN 
      00376  0020 00 0 00350         TRA     FWR1          RETURN TO MAIN FLOW.     
                              *     
                       00377  C      SYN     *  
      00377  0500 00 0 00055         CLA     EOFCT    
      00400  0400 00 0 00475         ADD     WC 
      00401 -0625 00 0 00472         STL     EOF           SET EOF SWITCH     
      00402  0621 00 0 00475         STA     WC 
      00403  0074 00 4 00007         TSX     $ENDF,4       GO TO DROPPING FROM (FTB)
                  
  BINARY CARD NO. VRED0014    
      00404  0 00000 0 00532         PZE     FILNAM   
      00405  0074 00 4 00010         TSX     $BFCLOS,4
      00406  3 00000 0 00532         PTH     FILNAM   
      00407  3 00000 0 00533         PTH     FILNAM+1 
      00410  3 00000 0 00411         PTH     *+1
      00411  0534 00 4 00475         LXA     WC,4     
      00412 -3 00000 4 00415         TXL     E+1,4,0  
      00413  0020 00 0 00140         TRA     BIB-2    
                  
      00414  0534 00 4 00475  E      LXA     WC,4     
      00415  0754 00 4 00000         PXA     ,4            SET WORD COUNT IN AC (20-35)   
      00416  0020 00 0 00417         TRA     ENDFIL   
1            FAP                                                                                 PAGE 7     
                  
      00417  0534 00 2 00330  ENDFIL LXA     X4+1,2   
      00420  0534 00 1 00331         LXA     X4+2,1   
      00421  0074 00 4 00011         TSX     $EOFXIT,4
      00422  0 00000 0 00532                 FILNAM   
                  
      00423  0074 00 4 00012  CERR   TSX     $WRFLX,4 
      00424  0 00006 0 00426                 MES,,6   
      00425  0074 00 4 00013         TSX     $EXIT,4  
      00426  603143432527     MES    BCI     6, ILLEGAL CALL TO VWRITE OR VREAD     
      00427  214360232143     
                  
  BINARY CARD NO. VRED0015    
      00430  436063466065     
      00431  665131632560     
      00432  465160655125     
      00433  212460606060     
                       00434  SETVB  SYN     *             RESET FIXED LENGTH BUFFER LENGTH     
                       00434  SETVBF SYN     *  
      00434  0600 00 0 00474         STZ     FTNSW    
      00435 -0634 00 4 00014         SXD     XR4,4    
      00436  0074 00 4 00000         TSX     $GNAM,4  
      00437  0 00000 0 00014         PZE     XR4
      00440  0402 00 0 00536         SUB     =2 
      00441 -0100 00 0 00444         TNZ     *+3
      00442 -0500 00 0 00535         CAL     =1 
      00443  0601 00 0 00474         STO     FTNSW    
      00444 -0500 00 0 00467         CAL     BSIZ     
      00445 -0520 00 0 00474         NZT     FTNSW    
      00446  0771 00 0 00022         ARS     18 
      00447  0602 00 0 00476         SLW     TEMP     
      00450 -0534 00 4 00014         LXD     XR4,4    
      00451 -0500 60 4 00001         CAL*    1,4
      00452 -0520 00 0 00474         NZT     FTNSW    
      00453  0734 00 4 00000         PAX     ,4 
                  
  BINARY CARD NO. VRED0016    
      00454  2 00026 4 00456         TIX     *+2,4,H  
      00455  0020 00 0 00457         TRA     *+2
      00456  0774 00 4 00026         AXT     H,4           CANNOT BE GREATER THAN 22 WORDS
      00457 -0634 00 4 00467         SXD     BSIZ,4   
      00460 -0534 00 4 00014         LXD     XR4,4    
      00461 -0500 00 0 00476         CAL     TEMP     
      00462  0020 00 4 00002         TRA     2,4
                  
      00463 -377777000000     VCNT   OCT     777777000000   
      00464 -377777000026     VCNTR  OCT     777777000026   
      00465  3 00000 1 00171  TXHZ   TXH     HEDLIS-1,1,0   
      00466  3 00000 4 00263  TXHLBZ TXH     IOARG,4,0
      00467  0 00016 0 00000  BSIZ   PZE     ,,14     
 A    00470  0020 00 0 00000  MDL    TRA  
      00471  0 00000 0 00000  SELAR  PZE  
      00472  0 00000 0 00000  EOF    PZE                   NOT ZERO IF EOF    
      00473  0 00000 0 00000  MADSW  PZE  
      00474  0 00000 0 00000  FTNSW  PZE  
      00475  0 00000 0 00000  WC     PZE  
      00476  0 00000 0 00000  TEMP   PZE  
1            FAP                                                                                 PAGE 8     
                  
      00477  0 00000 0 00000  SIND   PZE  
                  
  BINARY CARD NO. VRED0017    
      00500  0 00000 0 00000  FIX    PZE  
      00501  0 00000 0 00000  BF     PZE  
      00502  0 00000 0 00000  CNTRL  PZE  
      00503                   REC    BSS     23 
      00532                   FILNAM BSS     2  
                                     END  
                  
        LITERALS  
                  
  BINARY CARD NO. VRED0018    
      00534  000000000000     
      00535  000000000001     
      00536  000000000002     
      00537  000000777777     
      00540  606060606060     
1            FAP                                                                                 PAGE 1     
                        POST PROCESSOR ASSEMBLY DATA  
                  
        541 IS THE FIRST LOCATION NOT USED BY THIS PROGRAM  
                  
0REFERENCES TO DEFINED SYMBOLS      
        377      C    71,  113,  134,  377
        414      E   202,  412
         26      H    16,   61,   63,  225,  227,  231,  264,  274,  303,  454,  456
          3      L    16,  304,  305
        501     BF   207,  220,  315,  341
        346     CT   336,  350
         43     I1    21
        174     N1      
        475     WC    60,  104,  120,  122,  137,  206,  311,  324,  353,  400,  402,  411,  414
        327     X4    20,   45,   51,  204,  213,  334,  417,  420
        142    BIB   123,  200,  413
        372    CT2   337
        472    EOF    57,  201,  401
         36    FAP    25,   27,   33
        500    FIX   205,  272,  277,  333
        341    FWR   273,  300,  341
        470    MDL    56,  155,  224,  247
        426    MES   424
        201    OUT   175
        503    REC    63,  106,  112,  133,  171,  227,  264,  310,  322,  346,  361,  372
        176    TXI   142,  167,  174
        324    X41   203,  276,  354,  365
         14    XR4    16,   23,   37,  327,  435,  437,  450,  460
        236   BGEW    42,  246
        145   BIB1    41,  154
        467   BSIZ   100,  335,  444,  457
        112   BSZ2   102,  116
        423   CERR    50,  212
          1   COLT    36,   52,  221
          7   ENDF   403
         13   EXIT   425
        350   FWR1   350,  376
          0   GNAM    22,  436
         16   INIT    16,   46,  210
        477   SIND      
          3   SNAP    73,  115,  136,  323,  347,  362,  364,  373,  375
          4   SRCH   214
        476   TEMP   447,  461
        200   TERM      
        277   THRU   271
        177   TXHL   144,  160,  163,  165
        465   TXHZ   143
        266   TXIB   260
        463   VCNT   306,  307
        133   WCNT   127
        256  BFORD   252
         65  BIBLE      
        233  BLST1   270
        502  CNTRL    70,   74,  105,  124
         55  EOFCT    72,  114,  135,  363,  374,  377
        165  FORDR   161
1            FAP                                                                                 PAGE 2     
                        POST PROCESSOR ASSEMBLY DATA  
                  
         34  FRTRN    31
        474  FTNSW    17,   35,  325,  434,  443,  445,  452
        263  IOARG   233,  237,  267,  466
        332  IOEXT    40
        473  MADSW    32,  147,  241
        471  SELAR    53,  152,  222,  244
        434  SETVB     0,  434
        270  TERM1      
        322  THRU1   313
        306  THRU2   275
        361  THRU3   314
        267  TXHLB   235,  251,  254,  256
        464  VCNTR      
         45  VREAD     0,   45
         12  WRFLX   423
         10 BFCLOS   405
          2 BFREAD    65,  107,  130
          5 BFWRIT   317,  343
        355 DIRCL1   316
        366 DIRCL2   342
        417 ENDFIL   416
         11 EOFXIT   421
        532 FILNAM    24,   66,   67,  110,  111,  131,  132,  215,  320,  321,  344,  345,  356,  357,  367,  370,  404
                     406,  407,  422
        333 FWRITE     0
        172 HEDLIS   146,  177,  465
        260 NOLSTB   242,  245
        124 NORMAL    77
        434 SETVBF     0,  434
        170 SINGAR   150,  153,  157
        466 TXHLBZ   234
        204 VWRITE     0,  204,  340
        272 VWROUT   265
          6 WRWAIT   355,  366
                  
0 NO ERROR IN ABOVE ASSEMBLY. 




  WAIT   BCD 06/25/69 2048.6     135         00000    
1     FAP ASSEMBLY LISTING  ...  ...  ...        FILE WAIT__ _____FAP___         06/21/69 1701.0 PAGE 1     
                  
                       00000         ENTRY   WAIT     
      00000  0101 00 0 00001  WAIT   TIA     =HWAIT   
                                     END  
                  
        LITERALS  
      00001  662131636060     
1     FAP ASSEMBLY LISTING  ...  ...  ...        FILE WAIT__ _____FAP___         06/21/69 1701.0 PAGE 1     
                        POST PROCESSOR ASSEMBLY DATA  
                  
          2 IS THE FIRST LOCATION NOT USED BY THIS PROGRAM  
                  
0REFERENCES TO DEFINED SYMBOLS      
          0   WAIT     0
                  
0 NO ERROR IN ABOVE ASSEMBLY. 




  WHOA   BCD 05/29/67 0010.1     135         00000    
1                                                                                                PAGE 1     
                  
                       00000         ENTRY   WHOAMI   
      00000  0101 00 0 00001  WHOAMI TIA     =HWHOAMI 
                                     END  
                  
        LITERALS  
      00001  663046214431     
1                                                                                                PAGE 1     
                        POST PROCESSOR ASSEMBLY DATA  
                  
          2 IS THE FIRST LOCATION NOT USED BY THIS PROGRAM  
                  
0REFERENCES TO DEFINED SYMBOLS      
          0 WHOAMI     0
                  
0 NO ERROR IN ABOVE ASSEMBLY. 




  WRFL   BCD 05/29/67 0010.1     224         00000    
1            CONSOLE INPUT/OUTPUT CALLS TO SUPERVISOR                                            PAGE 1     
                           D.R. WIDRIG  NOV. 1966                                   
                  
                  
                       00000         ENTRY   WRFLX    
                       00001         ENTRY   WRFLXA   
                       00002         ENTRY   RDFLXA   
                  
      00000  0101 00 0 00005  WRFLX  TIA     =HWRFLX  
      00001  0101 00 0 00004  WRFLXA TIA     =HWRFLXA 
      00002  0101 00 0 00003  RDFLXA TIA     =HRDFLXA 
                  
                                     END  
                  
        LITERALS  
      00003  512426436721     
      00004  665126436721     
      00005  665126436760     
1            CONSOLE INPUT/OUTPUT CALLS TO SUPERVISOR                                            PAGE 1     
                        POST PROCESSOR ASSEMBLY DATA  
                  
          6 IS THE FIRST LOCATION NOT USED BY THIS PROGRAM  
                  
0REFERENCES TO DEFINED SYMBOLS      
          0  WRFLX     0
          2 RDFLXA     0
          1 WRFLXA     0
                  
0 NO ERROR IN ABOVE ASSEMBLY. 




  WRWT   BCD 05/29/67 0010.1     166         00000    
1                                                                                                PAGE 1     
                  
                       00000         ENTRY   WRFILE   
                       00001         ENTRY   WRWAIT   
      00000  0101 00 0 00002  WRFILE TIA     =HWRFILE 
      00001  0101 00 0 00003  WRWAIT TIA     =HWRWAIT 
                                     END  
                  
        LITERALS  
      00002  665126314325     
      00003  665166213163     
1                                                                                                PAGE 1     
                        POST PROCESSOR ASSEMBLY DATA  
                  
          4 IS THE FIRST LOCATION NOT USED BY THIS PROGRAM  
                  
0REFERENCES TO DEFINED SYMBOLS      
          0 WRFILE     0
          1 WRWAIT     0
                  
0 NO ERROR IN ABOVE ASSEMBLY. 




  XDET   BCD 05/29/67 0010.1    6794         00000    
1            FAP                                                                                 PAGE 1     
                  
                              *XSIMEQ      JULY 26, 1961     KORN 
                              *SOLUTION OF SIMULTANEOUS LINEAR EQUATIONS / EVALUATION OF DETERMINANTS 
                              *    REASSEMBLE XSIMEQ TO CORRECT ERROR INDUCED BY CHANGE TO FORTRAN    
                              *      AUGUST 22,1962   
                  
  BINARY CARD NO. XDET0000    
                       00371         ENTRY   XSIMEQ   
                       00526         ENTRY   XDETRM   
                  
                                             XSIMEQ WILL SOLVE THE MATRIX EQUATION AX=B FOR THE 
                                             UNKNOWN MATRIX X AND WILL COMPUTE THE DETERMINANT OF A.  
                                             FORTRAN STATEMENT TYPE     
                  
                                             XDETRM WILL COMPUTE THE DETERMINANT OF A.    
                                             FORTRAN STATEMENT TYPE      M=XDETRMF(N,LN,A,D)    
                  
                                             WHERE    
                  
                                             N=FIXED POINT CONSTANT OR VARIABLE EQUAL TO MAXIMUM
                                             POSSIBLE NUMBER OF ROWS (=COLUMNS) IN MATRIX A AS  
                                             SPECIFIED BY DIMENSION STATEMENT IN SOURCE PROGRAM 
                  
                                             LN=FIXED POINT CONSTANT OR VARIABLE EQUAL TO OBJECT
                                             PROGRAM DIMENSION OF A     
                  
                                             LM=FIXED POINT CONSTANT OR VARIABLE EQUAL TO OBJECT
                                             PROGRAM NUMBER OF COLUMNS IN MATRIX B (NOT LARGER THAN N)
                  
                                             A=SOURCE PROGRAM FLOATING POINT VARIABLE USED TO   
                                             DESIGNATE THE ELEMENTS OF THE MATRIX A 
                  
                                             B=SOURCE PROGRAM FLOATING POINT VARIABLE USED TO   
                                             DESIGNATE THE ELEMENTS OF THE MATRIX B 
                  
                                             D=SOURCE PROGRAM FLOATING POINT VARIABLE USED TO DENOTE  
                                             SCALING FACTOR. AFTER EXECUTION D CONTAINS SCALED VALUE  
                                             OF THE DETERMINANT   
                  
                                             E=SOURCE PROGRAM FIXED OR FLOATING POINT VARIABLE  
                                             DENOTING AT LEAST LN ERASABLE CELLS    
                  
                                             M WILL BE SET TO     
                  
                                             1 IF SOLUTION IS SUCCESSFUL
                                             2 IF SPILL OCCURRED  
                                             3 IF MATRIX A IS SINGULAR. 
                  
                                             LOCATE PIVOT AND RECORD I AND J  
                  
            LINKAGE DIRECTOR  
                  
  BINARY CARD NO. XDET0001    
      00000  000000000000     
      00001  676231442550     
1            FAP                                                                                 PAGE 2     
                  
      00002 -0534 00 1 00563   T1    LXD     AKK,1            INITIALIZE ELEMENT LOCATION INDEX 
      00003 -0634 00 1 00564         SXD     AKQ,1    
      00004 -0534 00 2 00575         LXD     K,2              INITIALIZE ROW INDEX  
      00005 -0534 00 4 00575         LXD     K,4              INITIALIZE COLUMN INDEX     
      00006 -0634 00 2 00573         SXD     I,2              INITIALIZE MAXIMUM PIVOT ROW
      00007 -0634 00 4 00574         SXD     J,4              INITIALIZE MAXIMUM PIVOT COLUMN   
      00010 -0754 00 0 00000   T7    PXD     0,0
      00011  0401 00 1 00000   T8    ADM     0,1              AC CONTAINS MAGNITUDE CURRENT MAXIMUM   
      00012  1 00001 1 00013         TXI     T10,1,1          NEXT ELEMENT    
      00013  1 00001 2 00014   T10   TXI     T11,2,1          NEXT ROW  
      00014  3 00602 2 00022   T11   TXH     T17,2,LN         TRANSFER IF LAST ROW TESTED 
      00015 -0400 00 1 00000   T12   SBM     0,1              TEST CURRENT ELEMENT  
      00016  0120 00 0 00011         TPL     T8               CURRENT MAXIMUM PIVOT HOLDS 
      00017 -0634 00 2 00573         SXD     I,2              CHANGE MAXIMUM PIVOT  
      00020 -0634 00 4 00574         SXD     J,4
      00021  0020 00 0 00010         TRA     T7 
      00022 -0534 00 1 00564   T17   LXD     AKQ,1            KTH ELEMENT, CURRENT COLUMN 
      00023  1 00603 1 00024   T18   TXI     T19,1,N  
                  
  BINARY CARD NO. XDET0002    
      00024 -0634 00 1 00564   T19   SXD     AKQ,1            KTH ELEMENT, NEXT COLUMN    
      00025 -0534 00 2 00575         LXD     K,2              KTH ROW   
      00026  1 00001 4 00027         TXI     T20,4,1          NEXT COLUMN     
      00027 -3 00602 4 00015   T20   TXL     T12,4,LN         EXIT IF LAST COLUMN TESTED  
                  
                                             INTERCHANGE ROWS IF NECESSARY    
                  
      00030  0500 00 0 00573   T21   CLA     I  
      00031  0402 00 0 00575         SUB     K  
      00032  0100 00 0 00071         TZE     T55              NO ROW INTERCHANGE    
      00033  0400 00 0 00563         ADD     AKK
      00034 -0734 00 2 00000         PDX     0,2              INITIALIZE ITH ROW INDEX    
      00035 -0534 00 1 00563         LXD     AKK,1            INITIALIZE KTH ROW INDEX    
      00036 -0534 00 4 00575         LXD     K,4              INITIALIZE COLUMN INDEX     
      00037  0502 00 0 00000   T28   CLS  ,  D                CHANGE SIGN OF  
      00040  0601 00 0 00000   T29   STO  ,  D                     DETERMINANT
      00041  0560 00 1 00000   T30   LDQ     0,1              INTERCHANGE     
      00042  0500 00 2 00000         CLA     0,2                   KTH AND ITH
      00043  0601 00 1 00000         STO     0,1                   ROWS OF    
      00044 -0600 00 2 00000         STQ     0,2                   MATRIX A   
      00045  1 00603 1 00046   T34   TXI     T35,1,N          NEXT ELEMENT, KTH ROW 
      00046  1 00603 2 00047   T35   TXI     T36,2,N          NEXT ELEMENT, ITH ROW 
      00047  1 00001 4 00050   T36   TXI     T37,4,1          NEXT COLUMN     
                  
  BINARY CARD NO. XDET0003    
      00050 -3 00602 4 00041   T37   TXL     T30,4,LN 
      00051  0761 00 0 00000   T38   NOP                      TRANSFER TO T55 FOR XDETRM  
      00052  0500 00 0 00576         CLA     KM1
      00053  0400 00 0 00565         ADD     B  
      00054 -0734 00 1 00000         PDX     0,1              INITIALIZE KTH ROW INDEX    
      00055  0402 00 0 00575         SUB     K  
      00056  0400 00 0 00573         ADD     I  
      00057 -0734 00 2 00000         PDX     0,2              INITIALIZE ITH ROW INDEX    
      00060 -0534 00 4 00630         LXD     =O1000000,4      INITIALIZE COLUMN INDEX     
      00061  0560 00 1 00000   T46   LDQ     0,1              INTERCHANGE     
      00062  0500 00 2 00000         CLA     0,2                   KTH AND ITH
1            FAP                                                                                 PAGE 3     
                  
      00063  0601 00 1 00000         STO     0,1                   ROWS OF    
      00064 -0600 00 2 00000         STQ     0,2                   MATRIX B   
      00065  1 00603 1 00066   T50   TXI     T51,1,N          NEXT ELEMENT, KTH ROW 
      00066  1 00603 2 00067   T51   TXI     T52,2,N          NEXT ELEMENT, ITH ROW 
      00067  1 00001 4 00070   T52   TXI     T53,4,1          NEXT COLUMN     
      00070 -3 00601 4 00061   T53   TXL     T46,4,LM         EXIT IF LAST COLUMN PROCESSED     
                  
                                             INTERCHANGE COLUMNS IF NECESSARY 
                  
      00071  0500 00 0 00574   T55   CLA     J  
      00072  0402 00 0 00575         SUB     K  
      00073  0100 00 0 00126         TZE     T85              NO COLUMN INTERCHANGE 
                  
  BINARY CARD NO. XDET0004    
      00074  0400 00 0 00576         ADD     KM1
      00075  0765 00 0 00043         LRS     35 
      00076  0200 00 0 00603         MPY     N  
      00077  0767 00 0 00021         ALS     17 
      00100  0400 00 0 00562         ADD     A  
      00101 -0734 00 1 00000         PDX     0,1              INITIALIZE JTH COLUMN INDEX 
      00102  0500 00 0 00577         CLA     KM1N     
      00103  0400 00 0 00562         ADD     A  
      00104 -0734 00 2 00000         PDX     0,2              INITIALIZE KTH COLUMN INDEX 
      00105 -0534 00 4 00602         LXD     LN,4             INITIALIZE COMPLEMENTARY ROW INDEX
      00106  0502 00 0 00000   T68   CLS  ,  D                CHANGE SIGN OF  
      00107  0601 00 0 00000   T69   STO  ,  D                     DETERMINANT
      00110  0560 00 1 00000   T70   LDQ     0,1              INTERCHANGE     
      00111  0500 00 2 00000         CLA     0,2                   KTH AND JTH
      00112  0601 00 1 00000         STO     0,1                   COLUMNS OF 
      00113 -0600 00 2 00000         STQ     0,2                   MATRIX A   
      00114  1 00001 1 00115         TXI     T75,1,1          NEXT ELEMENT, JTH COLUMN    
      00115  1 00001 2 00116   T75   TXI     T76,2,1          NEXT ELEMENT, KTH COLUMN    
      00116  2 00001 4 00110   T76   TIX     T70,4,1  
      00117  0761 00 0 00000   T77   NOP                      TRANSFER TO T85 FOR XDETRM  
                  
  BINARY CARD NO. XDET0005    
      00120 -0534 00 1 00574         LXD     J,1
      00121 -0534 00 2 00575         LXD     K,2
      00122  0500 00 1 00000   T80   CLA  ,1 E+1,1            INTERCHANGE     
      00123  0560 00 2 00000   T81   LDQ  ,2 E+1,2                 JTH AND KTH
      00124  0601 00 2 00000   T82   STO  ,2 E+1,2                 ELEMENTS OF
      00125 -0600 00 1 00000   T83   STQ  ,1 E+1,1                 ARRAY E    
                  
                                             COMPUTE DETERMINANT  
                  
      00126 -0534 00 1 00563   T85   LXD     AKK,1    
      00127  0500 00 1 00000         CLA     0,1              PIVOT ELEMENT   
      00130  0100 00 0 00367         TZE     T251             MATRIX A SINGULAR     
      00131  0765 00 0 00043         LRS     35 
      00132  0260 00 0 00000   T89   FMP  ,  D  
      00133  0601 00 0 00000   T90   STO  ,  D  
                  
                                             ROW REDUCTION  
1            FAP                                                                                 PAGE 4     
                  
      00134 -0534 00 1 00600         LXD     KP1,1    
      00135 -0634 00 1 00566         SXD     E1,1             INITIALIZE ROW TO BE REDUCED
      00136 -0534 00 1 00563         LXD     AKK,1    
      00137 -0634 00 1 00567         SXD     E2,1     
      00140  0500 00 0 00576         CLA     KM1
      00141  0400 00 0 00565         ADD     B  
      00142  0622 00 0 00570         STD     E3 
      00143 -0534 00 1 00570   T99   LXD     E3,1     
                  
  BINARY CARD NO. XDET0006    
      00144  1 00001 1 00145         TXI     T101,1,1 
      00145 -0634 00 1 00570   T101  SXD     E3,1             FIRST ELEMENT, CURRENT ROW, MATRIX B    
      00146 -0534 00 1 00567         LXD     E2,1     
      00147  1 00001 1 00150         TXI     T104,1,1 
      00150 -0634 00 1 00567   T104  SXD     E2,1             LEADING ELEMENT, CURRENT ROW, MATRIX A  
      00151 -0534 00 2 00563         LXD     AKK,2    
      00152 -0534 00 4 00600         LXD     KP1,4            INITIALIZE COLUMN INDEX     
      00153  0500 00 1 00000         CLA     0,1
      00154  0100 00 0 00210         TZE     T136             ROW NEEDS NO REDUCTION
      00155  0241 00 2 00000         FDP     0,2
      00156 -0600 00 0 00572         STQ     G  
      00157  1 00603 1 00160   T111  TXI     T112,1,N 
      00160  1 00603 2 00161   T112  TXI     T113,2,N 
      00161  0560 00 0 00572   T113  LDQ     G  
      00162  0260 00 2 00000         FMP     0,2
      00163  0760 00 0 00002         CHS  
      00164  0300 00 1 00000         FAD     0,1
      00165  0601 00 1 00000         STO     0,1              ELEMENT REDUCED 
      00166  1 00603 1 00167   T118  TXI     T119,1,N         NEXT ELEMENT, CURRENT ROW   
      00167  1 00603 2 00170   T119  TXI     T120,2,N         NEXT ELEMENT, KTH ROW 
                  
  BINARY CARD NO. XDET0007    
      00170  1 00001 4 00171   T120  TXI     T121,4,1         NEXT COLUMN     
      00171 -3 00602 4 00161   T121  TXL     T113,4,LN
      00172  0761 00 0 00000   T122  NOP                      TRANSFER TO T136 FOR XDETRM 
      00173 -0534 00 1 00570         LXD     E3,1             BEGIN REDUCTION OF MATRIX B 
      00174  0500 00 0 00576         CLA     KM1
      00175  0400 00 0 00565         ADD     B  
      00176 -0734 00 2 00000         PDX     0,2
      00177 -0534 00 4 00601         LXD     LM,4     
      00200  0560 00 2 00000   T128  LDQ     0,2
      00201  0260 00 0 00572         FMP     G  
      00202  0760 00 0 00002         CHS  
      00203  0300 00 1 00000         FAD     0,1
      00204  0601 00 1 00000         STO     0,1              ELEMENT REDUCED 
      00205  1 00603 1 00206   T133  TXI     T134,1,N         NEXT ELEMENT, CURRENT ROW   
      00206  1 00603 2 00207   T134  TXI     T135,2,N         NEXT ELEMENT, KTH ROW 
      00207  2 00001 4 00200   T135  TIX     T128,4,1 
      00210 -0534 00 1 00566   T136  LXD     E1,1     
      00211  1 00001 1 00212         TXI     T138,1,1 
      00212 -0634 00 1 00566   T138  SXD     E1,1             NEXT ROW TO BE REDUCED
      00213 -3 00602 1 00143   T139  TXL     T99,1,LN 
                  
  BINARY CARD NO. XDET0008    
      00214 -0534 00 1 00600         LXD     KP1,1    
      00215  1 00001 1 00216         TXI     T142,1,1 
1            FAP                                                                                 PAGE 5     
                  
      00216  3 00602 1 00234   T142  TXH     T156,1,LN        REDUCTION COMPLETE    
      00217 -0634 00 1 00600         SXD     KP1,1            K+1 
      00220  2 00001 1 00221         TIX     T145,1,1 
      00221 -0634 00 1 00575   T145  SXD     K,1              K   
      00222  2 00001 1 00223         TIX     T147,1,1 
      00223 -0634 00 1 00576   T147  SXD     KM1,1            K-1 
      00224  0500 00 0 00577         CLA     KM1N     
      00225  0400 00 0 00603         ADD     N  
      00226  0601 00 0 00577         STO     KM1N             (K-1)N    
      00227  0500 00 0 00563         CLA     AKK
      00230  0400 00 0 00603         ADD     N  
      00231  0400 00 0 00630         ADD     =O1000000
      00232  0601 00 0 00563         STO     AKK
      00233  0020 00 0 00002         TRA     T1               BEGIN NEW STAGE 
      00234  0500 00 0 00563   T156  CLA     AKK
      00235  0400 00 0 00603         ADD     N  
      00236  0400 00 0 00630         ADD     =O1000000
      00237 -0734 00 1 00000         PDX     0,1
                  
  BINARY CARD NO. XDET0009    
      00240  0500 00 1 00000         CLA     0,1              LAST PIVOT
      00241  0100 00 0 00367         TZE     T251             MATRIX A SINGULAR     
      00242  0765 00 0 00043         LRS     35 
      00243  0260 00 0 00000   T163  FMP  ,  D                FINAL VALUE OF  
      00244  0601 00 0 00000   T164  STO  ,  D                     DETERMINANT
      00245  0761 00 0 00000   T165  NOP                      THRU FOR XDETRM 
                  
                                             BACK SUBSTITUTION    
                  
      00246 -0634 00 1 00563         SXD     AKK,1    
      00247  0500 00 0 00602         CLA     LN 
      00250  0402 00 0 00630         SUB     =O1000000
      00251  0400 00 0 00565         ADD     B  
      00252  0622 00 0 00570         STD     E3 
      00253 -0534 00 1 00601         LXD     LM,1     
      00254 -0634 00 1 00566         SXD     E1,1     
      00255 -0534 00 1 00602   T174  LXD     LN,1     
      00256 -0634 00 1 00571         SXD     E4,1     
      00257 -0534 00 1 00563         LXD     AKK,1    
      00260 -0634 00 1 00567         SXD     E2,1     
      00261 -0534 00 2 00570         LXD     E3,2     
      00262  0500 00 2 00000         CLA     0,2
      00263  0241 00 1 00000         FDP     0,1
                  
  BINARY CARD NO. XDET0010    
      00264 -0600 00 2 00000         STQ     0,2
      00265 -0534 00 1 00567   T182  LXD     E2,1     
      00266  1 77777 1 00267         TXI     T184,1,-1
      00267 -0634 00 1 00567   T184  SXD     E2,1             LAST ELEMENT, CURRENT ROW, MATRIX A     
      00270  0600 00 0 00572         STZ     G  
      00271 -0534 00 4 00571         LXD     E4,4     
      00272 -2 00001 4 00312         TNX     T204,4,1 
      00273 -0634 00 4 00571         SXD     E4,4             ROW TO BE PROCESSED   
      00274 -0534 00 2 00570         LXD     E3,2     
      00275  0560 00 1 00000   T191  LDQ     0,1
      00276  0260 00 2 00000         FMP     0,2
1            FAP                                                                                 PAGE 6     
                  
      00277  0300 00 0 00572         FAD     G  
      00300  0601 00 0 00572         STO     G  
      00301  1 00000 1 00302   T195  TXI     T196,1, -N     
      00302  1 77777 2 00303   T196  TXI     T197,2,-1
      00303  1 00001 4 00304   T197  TXI     T198,4,1 
      00304 -3 00601 4 00275   T198  TXL     T191,4,LN-1    
      00305  0500 00 2 00000         CLA     0,2
      00306  0302 00 0 00572         FSB     G  
      00307  0241 00 1 00000         FDP     0,1
                  
  BINARY CARD NO. XDET0011    
      00310 -0600 00 2 00000         STQ     0,2              VALUE OF UNKNOWN
      00311  0020 00 0 00265         TRA     T182     
      00312 -0534 00 2 00570   T204  LXD     E3,2     
      00313  1 00603 2 00314   T205  TXI     T206,2,N 
      00314 -0634 00 2 00570   T206  SXD     E3,2             LAST ROW, NEXT COLUMN, MATRIX B   
      00315 -0534 00 2 00566         LXD     E1,2     
      00316 -2 00001 2 00321         TNX     T212,2,1 
      00317 -0634 00 2 00566   T209  SXD     E1,2             NUMBER OF REMAINING COLUMNS 
      00320  0020 00 0 00255         TRA     T174             USE (LM-E1+1)TH COLUMN OF B 
                  
                                             REARRANGEMENT AND PERMANENT STORAGE ASSIGNMENT     
                  
      00321  0500 00 0 00562   T212  CLA     A  
      00322  0622 00 0 00566         STD     E1 
      00323  0500 00 0 00630         CLA     =O1000000
      00324  0622 00 0 00567         STD     E2 
      00325 -0534 00 1 00626   T216  LXD     =0,1     
      00326  0500 00 0 00567   T217  CLA     E2 
      00327  0402 00 1 00000   T218  SUB  ,1 E,1
      00330  0100 00 0 00332         TZE     T221     
      00331  1 00001 1 00326         TXI     T217,1,1 
      00332 -0754 00 1 00000   T221  PXD     0,1
      00333  0400 00 0 00565         ADD     B  
                  
  BINARY CARD NO. XDET0012    
      00334 -0734 00 1 00000         PDX     0,1
      00335 -0534 00 2 00566         LXD     E1,2     
      00336 -0534 00 4 00601         LXD     LM,4     
      00337  0500 00 1 00000   T226  CLA     0,1
      00340  0601 00 2 00000         STO     0,2
      00341  1 00603 1 00342   T228  TXI     T229,1,N 
      00342  1 00603 2 00343   T229  TXI     T230,2,N 
      00343  2 00001 4 00337   T230  TIX     T226,4,1 
      00344 -0534 00 4 00602         LXD     LN,4     
      00345 -2 00001 4 00356         TNX     T242,4,1         THRU WITH XSIMEQ
      00346 -0634 00 4 00602         SXD     LN,4     
      00347  0500 00 0 00566         CLA     E1 
      00350  0400 00 0 00630         ADD     =O1000000
      00351  0601 00 0 00566         STO     E1               FIRST ELEMENT, NEXT ROW, MATRIX A 
      00352  0500 00 0 00567         CLA     E2 
      00353  0400 00 0 00630         ADD     =O1000000
      00354  0601 00 0 00567         STO     E2               NEXT ROW  
      00355  0020 00 0 00325         TRA     T216     
1            FAP                                                                                 PAGE 7     
                  
                                             FINAL RESULTS  
                  
      00356  0500 00 0 00630   T242  CLA     =O1000000        SOLUTION SUCCESSFUL   
      00357 -0534 00 1 00604   T243  LXD     REG12,1          RESTORE INDEX REGISTERS     
                  
  BINARY CARD NO. XDET0013    
      00360  0534 00 2 00604         LXA     REG12,2  
      00361 -0534 00 4 00000         LXD     T1-2,4   
      00362  0560 00 0 00605         LDQ     SAVE             RESTORE LOCATION 8    
      00363 -0600 00 0 00010         STQ     8  
      00364  0020 00 4 00001         TRA     1,4              EXIT FROM SUBROUTINE  
      00365  0500 00 0 00631   T249  CLA     =O2000000        SPILL     
      00366  0020 00 0 00357         TRA     T243     
      00367  0500 00 0 00632   T251  CLA     =O3000000        MATRIX A SINGULAR     
      00370  0020 00 0 00357         TRA     T243     
                  
                                             ENTRY POINTS   
                  
      00371  0601 00 0 00603   T254  STO     N                ENTRY FOR XSIMEQ
      00372 -0600 00 0 00602         STQ     LN 
      00373  0500 00 0 00634         CLA     =O76100000000    OCTAL CODE FOR NOP    
      00374  0601 00 0 00051         STO     T38
      00375  0601 00 0 00117         STO     T77
      00376  0601 00 0 00172         STO     T122     
      00377  0601 00 0 00245         STO     T165     
      00400  0601 00 0 00452         STO     T298     
      00401 -0634 00 4 00000         SXD     T1-2,4   
      00402 -0500 00 4 77777         CAL     -1,4            CHECH WORD PRECEEDING THE TSX           M
      00403  0771 00 0 00017         ARS     15            TO SEE IF IT WAS AN SXD                   M
                  
  BINARY CARD NO. XDET0014    
      00404  0322 00 0 00633         ERA     =O4634004                                               M
      00405 -0100 00 0 00407         TNZ     *+2
      00406  1 00001 4 00407         TXI     *+1,4,1       HAS SXD  REDUCE IR 4  BY ONE   
      00407  0500 00 4 77767         CLA     -9,4             FOURTH ARGUMENT (A)   
      00410  0767 00 0 00022         ALS     18 
      00411  0622 00 0 00562         STD     A  
      00412  0500 00 4 77775         CLA     -3,4             SEVENTH ARGUMENT (E)  
      00413  0621 00 0 00327         STA     T218     
      00414  0621 00 0 00455         STA     T301     
      00415  0400 00 0 00627         ADD     =1 
      00416  0621 00 0 00122         STA     T80
      00417  0621 00 0 00123         STA     T81
      00420  0621 00 0 00124         STA     T82
      00421  0621 00 0 00125         STA     T83
      00422  0500 00 0 77775         CLA     COMMON-2         THIRD ARGUMENT (LM)   
      00423  0601 00 0 00601         STO     LM 
      00424  0500 00 4 77771         CLA     -7,4             FIFTH ARGUMENT (B)    
      00425  0767 00 0 00022         ALS     18 
      00426  0622 00 0 00565         STD     B  
      00427  0500 00 4 77773         CLA     -5,4             SIXTH ARGUMENT (D)    
                  
  BINARY CARD NO. XDET0015    
      00430  0621 00 0 00037   T280  STA     T28
      00431  0621 00 0 00040         STA     T29
      00432  0621 00 0 00106         STA     T68
1            FAP                                                                                 PAGE 8     
                  
      00433  0621 00 0 00107         STA     T69
      00434  0621 00 0 00132         STA     T89
      00435  0621 00 0 00133         STA     T90
      00436  0621 00 0 00243         STA     T163     
      00437  0621 00 0 00244         STA     T164     
      00440  0500 00 0 00602         CLA     LN 
      00441  0622 00 0 00014         STD     T11
      00442  0622 00 0 00027         STD     T20
      00443  0622 00 0 00050         STD     T37
      00444  0622 00 0 00171         STD     T121     
      00445  0622 00 0 00213         STD     T139     
      00446  0622 00 0 00216         STD     T142     
      00447  0402 00 0 00630         SUB     =O1000000
      00450  0622 00 0 00304         STD     T198     
      00451  0622 00 0 00460         STD     T304     
      00452  0761 00 0 00000   T298  NOP                      TRANSFER TO T305 FOR XDETRM 
      00453 -0534 00 4 00626         LXD     =0,4     
                  
  BINARY CARD NO. XDET0016    
      00454  0500 00 0 00630         CLA     =O1000000
      00455  0601 00 4 00000   T301  STO  ,4 E,4              FILL ARRAY E    
      00456  0400 00 0 00630         ADD     =O1000000
      00457  1 00001 4 00460         TXI     T304,4,1 
      00460 -3 00601 4 00455   T304  TXL     T301,4,LN-1    
      00461 -0634 00 1 00604   T305  SXD     REG12,1  
      00462  0634 00 2 00604         SXA     REG12,2  
      00463 -0535 00 4 00562         LDC     A,4
      00464 -0634 00 4 00562         SXD     A,4
      00465 -0634 00 4 00563         SXD     AKK,4    
      00466 -0535 00 4 00565         LDC     B,4
      00467 -0634 00 4 00565         SXD     B,4
      00470  0500 00 0 00630         CLA     =O1000000
      00471  0601 00 0 00575         STO     K  
      00472  0400 00 0 00630         ADD     =O1000000
      00473  0601 00 0 00600         STO     KP1
      00474  0600 00 0 00576         STZ     KM1
      00475  0600 00 0 00577         STZ     KM1N     
      00476  0500 00 0 00601         CLA     LM 
      00477  0622 00 0 00070         STD     T53
                  
  BINARY CARD NO. XDET0017    
      00500  0500 00 0 00603         CLA     N  
      00501  0622 00 0 00023         STD     T18
      00502  0622 00 0 00045         STD     T34
      00503  0622 00 0 00046         STD     T35
      00504  0622 00 0 00065         STD     T50
      00505  0622 00 0 00066         STD     T51
      00506  0622 00 0 00157         STD     T111     
      00507  0622 00 0 00160         STD     T112     
      00510  0622 00 0 00166         STD     T118     
      00511  0622 00 0 00167         STD     T119     
      00512  0622 00 0 00205         STD     T133     
      00513  0622 00 0 00206         STD     T134     
      00514  0622 00 0 00313         STD     T205     
      00515  0622 00 0 00341         STD     T228     
      00516  0622 00 0 00342         STD     T229     
1            FAP                                                                                 PAGE 9     
                  
      00517 -0535 00 4 00603         LDC     N,4
      00520 -0634 00 4 00301         SXD     T195,4   
      00521  0500 00 0 00010         CLA     8  
      00522  0601 00 0 00605         STO     SAVE     
      00523  0500 00 0 00606         CLA     SPILL    
                  
  BINARY CARD NO. XDET0018    
      00524  0601 00 0 00010         STO     8  
      00525  0020 00 0 00002         TRA     T1 
      00526  0601 00 0 00603   T343  STO     N                ENTRY FOR XDETRM
      00527 -0600 00 0 00602         STQ     LN 
      00530 -0634 00 4 00000         SXD     T1-2,4   
      00531  0500 00 0 00555         CLA     TRA1     
      00532  0601 00 0 00051         STO     T38
      00533  0500 00 0 00556         CLA     TRA2     
      00534  0601 00 0 00117         STO     T77
      00535  0500 00 0 00557         CLA     TRA3     
      00536  0601 00 0 00172         STO     T122     
      00537  0500 00 0 00560         CLA     TRA4     
      00540  0601 00 0 00245         STO     T165     
      00541  0500 00 0 00561         CLA     TRA5     
      00542  0601 00 0 00452         STO     T298     
      00543 -0500 00 4 77777         CAL     -1,4          CHECK FOR PRECEEDING SXD                 MI
      00544  0771 00 0 00017         ARS     15                                                     MI
      00545  0322 00 0 00633         ERA     =O4634004     SXD,4                                    MI
      00546 -0100 00 0 00550         TNZ     *+2                                                    MI
      00547  1 00001 4 00550         TXI     *+1,4,1                                                MI
                  
  BINARY CARD NO. XDET0019    
      00550  0500 00 4 77773         CLA     -5,4             THIRD ARGUMENT (A)    
      00551  0767 00 0 00022         ALS     18 
      00552  0622 00 0 00562         STD     A  
      00553  0500 00 4 77775         CLA     -3,4             FOURTH ARGUMENT (D)   
      00554  0020 00 0 00430         TRA     T280     
                  
      00555  0020 00 0 00071   TRA1  TRA     T55
      00556  0020 00 0 00126   TRA2  TRA     T85
      00557  0020 00 0 00210   TRA3  TRA     T136     
      00560  0020 00 0 00356   TRA4  TRA     T242     
      00561  0020 00 0 00461   TRA5  TRA     T305     
      00562  0 00000 0 00000   A     PZE                      -A  
      00563  0 00000 0 00000   AKK   PZE                      -A+(K-1)(N+1)   
      00564  0 00000 0 00000   AKQ   PZE  
      00565  0 00000 0 00000   B     PZE                      -B  
      00566  0 00000 0 00000   E1    PZE  
      00567  0 00000 0 00000   E2    PZE  
      00570  0 00000 0 00000   E3    PZE  
      00571  0 00000 0 00000   E4    PZE  
      00572  0 00000 0 00000   G     PZE  
      00573  0 00000 0 00000   I     PZE  
                  
  BINARY CARD NO. XDET0020    
      00574  0 00000 0 00000   J     PZE  
      00575  0 00000 0 00000   K     PZE                      STAGE OF REDUCTION    
      00576  0 00000 0 00000   KM1   PZE                      K-1 
      00577  0 00000 0 00000   KM1N  PZE                      (K-1)N    
1            FAP                                                                                 PAGE 10    
                  
      00600  0 00000 0 00000   KP1   PZE                      K+1 
      00601  0 00000 0 00000   LM    PZE  
      00602  0 00000 0 00000   LN    PZE  
      00603  0 00000 0 00000   N     PZE  
      00604  0 00000 0 00000   REG12 PZE  
      00605  0 00000 0 00000   SAVE  PZE                      CONTENTS OF LOCATION 8
      00606  0020 00 0 00610   SPILL TRA     TEST             MODIFIED TREATMENT OF UNDERFLOWS  
      00607  0 00000 0 00000   TMP   PZE                      CONTENTS OF INDICATORS
      00610  0604 00 0 00607   TEST  STI     TMP
      00611  0441 00 0 00000         LDI     0  
      00612 -0054 00  000004         LFT     4  
      00613  0020 00 0 00624         TRA     OVER             SKIPPED IF UNDERFLOW  
      00614 -0054 00  000002         LFT     2  
      00615  0760 00 0 00000         CLM                      SKIPPED IF ONLY MQ UNDERFLOW
      00616  0131 00 0 00000         XCA  
      00617 -0054 00  000001         LFT     1  
                  
  BINARY CARD NO. XDET0021    
      00620  0760 00 0 00000         CLM                      SKIPPED IF ONLY AC UNDERFLOW
      00621  0131 00 0 00000         XCA  
      00622  0441 00 0 00607         LDI     TMP
      00623  0020 60 0 00000         TRA*    0  
      00624  0441 00 0 00607   OVER  LDI     TMP
      00625  0020 00 0 00365         TRA     T249     
                       00371  XSIMEQ SYN     T254     
                       00526  XDETRM SYN     T343     
                       77777         COMMON  -206     
                       77777  COMMON COMMON  1  
                                     END  
                  
        LITERALS  
      00626  000000000000     
      00627  000000000001     
      00630  000001000000     
      00631  000002000000     
      00632  000003000000     
      00633  000004634004     
      00634  076100000000     
1            FAP                                                                                 PAGE 1     
                        POST PROCESSOR ASSEMBLY DATA  
                  
       77776 IS THE LAST LOCATION NOT USED BY THIS PROGRAM  
        635 IS THE FIRST LOCATION NOT USED BY THIS PROGRAM  
                  
0REFERENCES TO DEFINED SYMBOLS      
        562      A   100,  103,  321,  411,  463,  464,  552
        565      B    53,  141,  175,  251,  333,  426,  466,  467
        572      G   156,  161,  201,  270,  277,  300,  306
        573      I     6,   17,   30,   56
        574      J     7,   20,   71,  120
        575      K     4,    5,   25,   31,   36,   55,   72,  121,  221,  471
        603      N    23,   45,   46,   65,   66,   76,  157,  160,  166,  167,  205,  206,  225,  230,  235,  313,  341
                     342,  371,  500,  517,  526
        566     E1   135,  210,  212,  254,  315,  317,  322,  335,  347,  351
        567     E2   137,  146,  150,  260,  265,  267,  324,  326,  352,  354
        570     E3   142,  143,  145,  173,  252,  261,  274,  312,  314
        571     E4   256,  271,  273
        601     LM    70,  177,  253,  336,  423,  476
        602     LN    14,   27,   50,  105,  171,  213,  216,  247,  255,  304,  344,  346,  372,  440,  460,  527
          2     T1   233,  361,  401,  525,  530
         10     T7    21
         11     T8    16
        563    AKK     2,   33,   35,  126,  136,  151,  227,  232,  234,  246,  257,  465
        564    AKQ     3,   22,   24
        576    KM1    52,   74,  140,  174,  223,  474
        600    KP1   134,  152,  214,  217,  473
         13    T10    12
         14    T11    13,  441
         15    T12    27
         22    T17    14
         23    T18   501
         24    T19    23
         27    T20    26,  442
         30    T21      
         37    T28   430
         40    T29   431
         41    T30    50
         45    T34   502
         46    T35    45,  503
         47    T36    46
         50    T37    47,  443
         51    T38   374,  532
         61    T46    70
         65    T50   504
         66    T51    65,  505
         67    T52    66
         70    T53    67,  477
         71    T55    32,  555
        106    T68   432
        107    T69   433
        110    T70   116
        115    T75   114
        116    T76   115
        117    T77   375,  534
        122    T80   416
1            FAP                                                                                 PAGE 2     
                        POST PROCESSOR ASSEMBLY DATA  
                  
        123    T81   417
        124    T82   420
        125    T83   421
        126    T85    73,  556
        132    T89   434
        133    T90   435
        143    T99   213
        607    TMP   610,  622,  624
        577   KM1N   102,  224,  226,  475
        624   OVER   613
        605   SAVE   362,  522
        145   T101   144
        150   T104   147
        157   T111   506
        160   T112   157,  507
        161   T113   160,  171
        166   T118   510
        167   T119   166,  511
        170   T120   167
        171   T121   170,  444
        172   T122   376,  536
        200   T128   207
        205   T133   512
        206   T134   205,  513
        207   T135   206
        210   T136   154,  557
        212   T138   211
        213   T139   445
        216   T142   215,  446
        221   T145   220
        223   T147   222
        234   T156   216
        243   T163   436
        244   T164   437
        245   T165   377,  540
        255   T174   320
        265   T182   311
        267   T184   266
        275   T191   304
        301   T195   520
        302   T196   301
        303   T197   302
        304   T198   303,  450
        312   T204   272
        313   T205   514
        314   T206   313
        317   T209      
        321   T212   316
        325   T216   355
        326   T217   331
        327   T218   413
        332   T221   330
        337   T226   343
        341   T228   515
        342   T229   341,  516
1            FAP                                                                                 PAGE 3     
                        POST PROCESSOR ASSEMBLY DATA  
                  
        343   T230   342
        356   T242   345,  560
        357   T243   366,  370
        365   T249   625
        367   T251   130,  241
        371   T254   626
        430   T280   554
        452   T298   400,  542
        455   T301   414,  460
        460   T304   451,  457
        461   T305   561
        526   T343   626
        610   TEST   606
        555   TRA1   531
        556   TRA2   533
        557   TRA3   535
        560   TRA4   537
        561   TRA5   541
        604  REG12   357,  360,  461,  462
        606  SPILL   523
      77777 COMMON   422,  626
        526 XDETRM     0,  626
        371 XSIMEQ     0,  626
                  
0 NO ERROR IN ABOVE ASSEMBLY. 




  XDIM   BCD 05/29/67 0010.1     274         00000    
1            FAP                                                                                 PAGE 1     
                  
                              *XDIM          ARG1-MIN(ARG1,ARG2)  
                              *              CALLING SEQUENCE TSX XDIM,4
                              *                            TXH ARG1     
                              *                            TXH ARG2     
                              *                            3,4 RETURN   
                              *              ARGUEMENTS AND FUNCTION FIXED    
                       00002         ENTRY   XDIM     
                  
            LINKAGE DIRECTOR  
      00000  000000000000     
      00001  672431446060     
                  
      00002  0500 60 4 00001  XDIM   CLA*    1,4
      00003  0402 60 4 00002         SUB*    2,4
      00004  0120 00 0 00006         TPL     *+2
 T    00005 -0754 00 0 00000         PXD  
      00006  0020 00 4 00003         TRA     3,4
                                             FUNCTING IN ARITHMETIC ACCUMULATOR     
                                     END  
1            FAP                                                                                 PAGE 1     
                        POST PROCESSOR ASSEMBLY DATA  
                  
          7 IS THE FIRST LOCATION NOT USED BY THIS PROGRAM  
                  
0REFERENCES TO DEFINED SYMBOLS      
          2   XDIM     0
                  
0 NO ERROR IN ABOVE ASSEMBLY. 




  XECM   BCD 05/29/67 0010.1    2298         00000    
1            FAP                                                                                 PAGE 1     
                  
                              *      XECOM   EXECUTES ONE COMMAND 
                              *      SAVES COMMAND LIST AND COUNTER     
                              *      LOADS   3 COMMANDS, INCLUDING 'SAVE' AND 'RESUME'    
                              *      STARTS  THE CHAIN
                              *      ON RETURN, RESTORES LIST AND COUNTER, RETURNS TO CALLER    
                                             MODIFIED FOR NEW FILE SYSTEM  AUG 65   EMK   
                              * CALLING SEQUENCE
                              * FAP  TSX     XECOM,4  
                              *      PZE     NAME     
                              *      PZE     ARG1     
                              *      ...      ..
                              *      PZE     ARGN     
                              *      STO     ERROR CODE     
                              * MAD  ERR. = XECOM.($NAME$, A, B(P)...B(Q), C, ... , N)    
                              * FORTRAN,  K=XECOM(NH  NAME  ARG1  ARG2  ...)  
                              * COMPUTATION CENTER     LOUIS POUZIN     
                              *      JULY 64    
                  
                  
                              TSS    MACRO   A,X
                                     TSX     A,X
                                     RMT  
                              A      TIA     *+1
                                     BCI     1,A
                                     RMT  
                              TSS    END  
                  
  BINARY CARD NO. XECOM000    
                       00016         ENTRY   XECOM    
                  
                  
                  
        TRANSFER VECTOR 
                  
  BINARY CARD NO. XECOM001    
      00000  234643636060     COLT  
      00001  444665250160     MOVE1 
      00002  444665250260     MOVE2 
      00003  514164626360     RJUST 
      00004  444665250360     MOVE3 
      00005  272563234362     GETCLS
      00006  272563234323     GETCLC
      00007  242543256325     DELETE
      00010  622563234362     SETCLS
      00011  276345214460     GTNAM 
      00012  622563234323     SETCLC
      00013  242543263143     DELFIL
                  
            LINKAGE DIRECTOR  
      00014  000000000000     
      00015  672523464460     
                  
                       00014  X4     SYN     *-2
1            FAP                                                                                 PAGE 2     
                  
      00016 -0634 00 4 00014  XECOM  SXD     X4,4     
      00017  0634 00 1 00140         SXA     X1,1     
      00020  0634 00 2 00141         SXA     X2,2     
      00021  0636 00 4 00035         SCA     AB,4     
                  
                  
                              * GET ACTUAL VALUES OF ARGUMENTS    
                  
      00022  0074 00 4 00000         TSX     $COLT,4  
      00023  0 00000 0 00014         PZE     X4 
                  
  BINARY CARD NO. XECOM002    
      00024 -0737 00 1 00000         PDC     ,1 
      00025 -0634 00 1 00047         SXD     AE,1          -LENGTH OF CALLING SEQUENCE    
      00026  0636 00 1 00143         SCA     AH,1     
      00027  0500 00 0 00154         CLA     SAVE+3        FENCE AS ERROR CODE
 D    00030 -3 00000 1 00137         TXL     AG,1          RETURN IF NO ARGUMENT    
      00031  0074 00 4 00001         TSX     $MOVE1,4      SETS TARGET BUFFER 
      00032  2 00301 0 00257         TIX     ACTARG,,ACTARG+CL-2  
      00033  0774 00 1 77777         AXT     -1,1          STARTS WITH 1ST ARGUMENT 
      00034  0774 00 2 00000         AXT     ,2 
      00035 -0500 00 1 00000  AB     CAL     **,1          IX1 FROM -1 TO -LENGTH OF CALL. SEQ. 
      00036  0602 00 0 00040         SLW     AC 
      00037  0074 00 4 00002         TSX     $MOVE2,4      SETS SOURCE BUFFER 
      00040  0 00000 0 00000  AC     ***     **,,**   
      00041  0601 00 0 00303  AK     STO     K  
      00042  1 77777 2 00043         TXI     *+1,2,-1      IX2 FROM -1 TO -WORD COUNT     
      00043  0074 00 4 00003         TSX     $RJUST,4      RIGHT JUSTIFIES ARGUMENTS
      00044  0 00000 0 00303         PZE     K  
      00045 -1 00047 0 00053         STR     AD,,AE   
      00046  0020 00 0 00041         TRA     AK 
      00047 -3 00000 1 00051  AE     TXL     *+2,1,**      ARGUMENT EXHAUSTED 
                  
  BINARY CARD NO. XECOM003    
      00050  1 77777 1 00035         TXI     AB,1,-1       NEXT ARGUMENT
      00051  0500 00 0 00154         CLA     SAVE+3        FENCE  
      00052 -1 00053 0 00053         STR     AD,,AD   
                       00053  AD     SYN     *             CALLING SEQUENCE EXHAUSTED     
      00053  0074 00 4 00004         TSX     $MOVE3,4      RESET TRAPPING MODE
                  
                  
                              * SAVES COMMAND LIST AND COUNTER    
                  
      00054  0774 00 1 00001         AXT     1,1
      00055  0774 00 2 00163         AXT     CBUF,2   
      00056  0634 00 2 00061  U      SXA     *+3,2    
      00057 -0634 00 1 00061         SXD     *+2,1    
      00060  0074 00 4 00005         TSX     $GETCLS,4
      00061  0 00000 0 00000         PZE     **,,**   
      00062  1 00024 2 00063         TXI     *+1,2,CL 
      00063  1 00001 1 00064         TXI     *+1,1,1  
      00064 -3 00003 1 00056         TXL     U,1,CN   
      00065  0074 00 4 00006         TSX     $GETCLC,4
      00066  0602 00 0 00162         SLW     CLC
      00067 -0100 00 0 00074         TNZ     B1            SKIP WHEN NOT AT CONSOLE LEVEL 
      00070  0074 00 4 00007         TSX     $DELETE,4
1            FAP                                                                                 PAGE 3     
                  
      00071  0 00000 0 00147         PZE     BASFIL        STARTS WITH ...001 
      00072  0100 00 0 00074         TZE     B1 
      00073  0020 00 0 00145         TRA     ZZ+1     
                  
                  
                              * LOADS COMMAND   
                  
                       00074  B1     SYN     *  
                  
  BINARY CARD NO. XECOM004    
      00074  0074 00 4 00010         TSX     $SETCLS,4
      00075  0 00002 0 00257         PZE     ACTARG,,2
                  
                  
                              * GETS A FILE NAME FOR TEMPORARY STORAGE  
                  
      00076  0074 00 4 00011         TSX     $GTNAM,4 
      00077  0 00000 0 00157         PZE     RESUME+2 
      00100  0601 00 0 00152         STO     SAVE+1   
      00101  0601 00 0 00156         STO     RESUME+1 
                  
                  
                              * SELECTS MODE FOR SAVED FILE 
                  
      00102                          TSS     GETCF,4  
      00103  0560 00 0 00154         LDQ     SAVE+3        FENCE  
      00104 -0100 00 0 00106         TNZ     A             SKIP WHEN IN SOME COMMON FILE  
      00105  0560 00 0 00312         LDQ     =H     T      TEMPORARY FLAG     
      00106 -0600 00 0 00153  A      STQ     SAVE+2        SET FENCE OR T FLAG
                  
                  
                              * SETS BRACKET COMMANDS 
                  
      00107  0074 00 4 00010         TSX     $SETCLS,4
      00110  0 00001 0 00151         PZE     SAVE,,1  
      00111  0074 00 4 00010         TSX     $SETCLS,4
      00112  0 00003 0 00155         PZE     RESUME,,CN     
                  
                  
                              * STARTS CHAIN    
                  
      00113 -0500 00 0 00311         CAL     =O3000001     1 TO 3 
      00114  0074 00 4 00012         TSX     $SETCLC,4
      00115                          TSS     CHNCOM,4 
      00116  0 00000 0 00001         PZE     1             KEEP CORE IMAGE    
                  
                  
                              * RETURN AFTER COMMANDS EXECUTED    
                  
      00117  0074 00 4 00013         TSX     $DELFIL,4
                  
  BINARY CARD NO. XECOM005    
      00120  3 00000 0 00156         PTH     RESUME+1 
      00121  3 00000 0 00157         PTH     RESUME+2 
      00122  3 00000 0 00123         PTH     *+1
1            FAP                                                                                 PAGE 4     
                  
                              * RESTORES COMMAND LISTS AND COUNTER
                  
      00123  0774 00 1 00001         AXT     1,1
      00124  0774 00 2 00163         AXT     CBUF,2   
      00125  0634 00 2 00130  V      SXA     *+3,2    
      00126 -0634 00 1 00130         SXD     *+2,1    
      00127  0074 00 4 00010         TSX     $SETCLS,4
      00130  0 00000 0 00000         PZE     **,,**   
      00131  1 00024 2 00132         TXI     *+1,2,CL 
      00132  1 00001 1 00133         TXI     *+1,1,1  
      00133 -3 00003 1 00125         TXL     V,1,CN   
      00134 -0500 00 0 00162         CAL     CLC
      00135  0074 00 4 00012         TSX     $SETCLC,4
                  
                  
                              * END OF PROCESS  
                  
      00136  0500 00 0 00161         CLA     FAIL     
      00137 -0534 00 4 00014  AG     LXD     X4,4     
      00140  0774 00 1 00000  X1     AXT     **,1     
      00141  0774 00 2 00000  X2     AXT     **,2     
      00142  1 77777 4 00143         TXI     *+1,4,-1 
      00143  0020 00 4 00000  AH     TRA     **,4     
                  
                  
  BINARY CARD NO. XECOM006    
      00144  0500 00 0 00310  ZZ     CLA     =1 
      00145  0601 00 0 00161         STO     FAIL     
      00146  0020 00 0 00123         TRA     V-2
                  
                  
      00147  333333000001     BASFIL BCI     2,...001 SAVED 
      00150  606221652524     
      00151  606062216525     SAVE   VFD     H36/SAVE,36/,O36//,O36//   
      00152  000000000000     
      00153  777777777777     
      00154  777777777777     
      00155  512562644425     RESUME VFD     H36/RESUME,36/,H36/SAVED,O36//   
      00156  000000000000     
      00157  606221652524     
      00160  777777777777     
                       00003  CN     EQU     3  
                       00024  CL     EQU     20 
      00161                   FAIL   BSS     1             ZERO IF NO ERROR   
      00162                   CLC    BSS     1             SAVE COMMAND COUNTER     
      00163                   CBUF   BSS     CL*CN         SAVE COMMAND LISTS 
      00257                   ACTARG BSS     CL 
      00303                   K      BSS     1  
                                     END  
                                              REMOTE SEQUENCES    
                  
  BINARY CARD NO. XECOM007    
1            FAP                                                                                 PAGE 1     
                        POST PROCESSOR ASSEMBLY DATA  
                  
        313 IS THE FIRST LOCATION NOT USED BY THIS PROGRAM  
                  
0REFERENCES TO DEFINED SYMBOLS      
        106      A   104
        303      K    41,   44
         56      U    64
        125      V   133,  146
         35     AB    21,   50
         40     AC    36
         53     AD    45,   52,   53
         47     AE    25,   45
        137     AG    30
        143     AH    26
         41     AK    46
         74     B1    67,   72,   74
         24     CL    32,   62,  131,  161,  163,  257
          3     CN    64,  112,  133,  161,  163
        140     X1    17
        141     X2    20
         14     X4    16,   23,  137
        144     ZZ    73
        162    CLC    66,  134
        163   CBUF    55,  124
          0   COLT    22
        161   FAIL   136,  145
        151   SAVE    27,   51,  100,  103,  106,  110
        304  GETCF   102
         11  GTNAM    76
          1  MOVE1    31
          2  MOVE2    37
          4  MOVE3    53
          3  RJUST    43
         16  XECOM     0
        257 ACTARG    32,   75
        147 BASFIL    71
        306 CHNCOM   115
          7 DELETE    70
         13 DELFIL   117
          6 GETCLC    65
          5 GETCLS    60
        155 RESUME    77,  101,  112,  120,  121
         12 SETCLC   114,  135
         10 SETCLS    74,  107,  111,  127
                  
0 NO ERROR IN ABOVE ASSEMBLY. 




  XFIX   BCD 05/29/67 0010.9     328         00000    
1            FAP                                                                                 PAGE 1     
                  
                              *XINT          TRUNCATION, ARGUEMENT FLOATING, FUNCTION FIXED     
                              *              FOR MADTRAN TRANSLATED PROGRAMS  
                              *              CALLING SEQU(NCE EXECUTE XINT.(FLOAT ARG) RESULT FIXED PT
                              *                            2,4 RETURN   
                              *              RESULT IN ARITHMETIC ACCUM ADDRESS ONLY
                       00002         ENTRY   XFIX     
                       00002         ENTRY   XINT     
                  
            LINKAGE DIRECTOR  
      00000  000000000000     
      00001  672631676060     
                  
      00002  0500 60 4 00001  XINT   CLA*    1,4
      00003 -0300 00 0 00011         UFA     =O233000000000 
      00004  0765 00 0 00000         LRS     0             SIGN OF AC TO MQ   
      00005 -0320 00 0 00010         ANA     =O377777 
      00006  0763 00 0 00000         LLS     0             SIGN OF MQ TO AC   
      00007  0020 00 4 00002         TRA     2,4
                       00002  XFIX   SYN     XINT     
                                     END  
                  
        LITERALS  
      00010  000000377777     
      00011  233000000000     
1            FAP                                                                                 PAGE 1     
                        POST PROCESSOR ASSEMBLY DATA  
                  
         12 IS THE FIRST LOCATION NOT USED BY THIS PROGRAM  
                  
0REFERENCES TO DEFINED SYMBOLS      
          2   XFIX     0,   10
          2   XINT     0,   10
                  
0 NO ERROR IN ABOVE ASSEMBLY. 




  XLOC   BCD 05/29/67 0010.9     606         00000    
1            FAP                                                                                 PAGE 1     
                  
                              *      AUGUST 21,1962   
                              *  709 FORTRAN LIBRARY / RELOCATED LOCATION FUNCTION ROUTINE / 9XL0     
                              *  IBM / APPLIED PROGRAMMING / JANUARY 1960     
                              *   REVISED TO ACCEPT MAD CALLING SEQUENCES   JULY 11, 1961 
                  
                              *  THE CALLING SEQUENCE MAY BE
                  
                              *        CALL  XLOC      OR      TSX  $XLOC,4   (MAD FORMAT)
                              *                                TXH  N   
                  
                  
  BINARY CARD NO. XLOC0000    
                       00002         ENTRY   XLOC     
                  
                  
                  
            LINKAGE DIRECTOR  
                  
  BINARY CARD NO. XLOC0001    
      00000  000000000000     
      00001  674346236060     
                  
      00002  0500 00 0 00025  XLOC   CLA     TXH           TEST FOR MAD ARGUMENT    
      00003  0560 00 4 00001         LDQ     1,4            .     
      00004  0040 00 0 00010         TLQ     *+4            .  NONE     
      00005  0131 00 0 00000         XCA                    .     
      00006 -0320 00 0 00023         ANA     XCON2          .     
      00007  0020 00 4 00002         TRA     2,4            .  EXIT--N IN AC  
                  
      00010  0634 00 4 00020         SXA     XLOC1,4  
      00011 -0500 00 4 77777         CAL     -1,4          SEARCH 
      00012 -0765 00 0 00022         LGR     18            FOR    
      00013  0402 00 0 00022         SUB     XCON1         PREVIOUS     
      00014  0100 00 0 00016         TZE     *+2           CLA N  
      00015  1 00001 4 00011         TXI     *-4,4,1       TO     
      00016 -0130 00 0 00000         XCL                   OBTAIN 
      00017 -0320 00 0 00024         ANA     XCON3         LOCATION     
      00020  0774 00 4 00000  XLOC1  AXT     **,4          OF N.  
      00021  0020 00 4 00001         TRA     1,4           .  EXIT--N IN AC   
                  
                  
                                          . . . . . . . . . . . . . . . . . . . . . . . . . . . . .   
      00022 +000000050000     XCON1  OCT     50000         MASKS  
      00023 +000000777777     XCON2  OCT     777777         .     
                  
  BINARY CARD NO. XLOC0002    
      00024  0 77777 0 00000  XCON3  PZE     ,,-1           .     
 ATD  00025  3 00000 0 00000  TXH    TXH                    .     
                                          . . . . . . . . . . . . . . . . . . . . . . . . . . . . .   
                                     END  
1            FAP                                                                                 PAGE 1     
                        POST PROCESSOR ASSEMBLY DATA  
                  
         26 IS THE FIRST LOCATION NOT USED BY THIS PROGRAM  
                  
0REFERENCES TO DEFINED SYMBOLS      
         25    TXH     2
          2   XLOC     0
         22  XCON1    13
         23  XCON2     6
         24  XCON3    17
         20  XLOC1    10
                  
0 NO ERROR IN ABOVE ASSEMBLY. 




  XMAX   BCD 05/29/67 0010.9     452         00000    
1            FAP                                                                                 PAGE 1     
                  
                              *XMAX1         FIXED POINT FUNCTION,FLOATING POINT ARGUEMENTS     
                              *              FINDING THE MAXIMUM VALUE OF THE ARGUEMENTS  
                              *              CALLING SEQUENCE TSX XMAX1,4     
                              *                             TXH ARGU1   
                              *              MAD USE        TXH ARGN    
                              *              ANY NUMBER OF ARGUEMENT BUT AT LEAST TWO     
                       00002         ENTRY   XMAX1    
                  
            LINKAGE DIRECTOR  
      00000  000000000000     
      00001  674421670160     
                  
      00002  0774 00 1 77777  XMAX1  AXT     -1,1     
      00003  0500 00 4 00001  BEGIN  CLA     1,4
      00004 -0320 00 0 00026         ANA     =O777777700000 
      00005  0402 00 0 00025         SUB     =O300000000000 
      00006 -0100 00 0 00011         TNZ     DONE     
      00007  1 77777 4 00010         TXI     *+1,4,-1 
      00010  1 00001 1 00003         TXI     BEGIN,1,1
      00011  0500 60 4 00000  DONE   CLA*    0,4
      00012  0560 60 4 77777  LDQ    LDQ*    -1,4     
      00013  0040 00 0 00015         TLQ     HERE           MQ LOW
      00014  0131 00 0 00000         XCA                    MQ HIGH     
      00015  1 00001 4 00016  HERE   TXI     *+1,4,1  
      00016  2 00001 1 00012         TIX     LDQ,1,1  
      00017 -0300 00 0 00024         UFA     =O233000000000 
      00020 -0320 00 0 00023         ANA     =O377777 
      00021  0763 00 0 00000         LLS     0  
      00022  0020 00 4 00001         TRA     1,4
                                     END  
                  
        LITERALS  
      00023  000000377777     
      00024  233000000000     
      00025  300000000000     
      00026  777777700000     
1            FAP                                                                                 PAGE 1     
                        POST PROCESSOR ASSEMBLY DATA  
                  
         27 IS THE FIRST LOCATION NOT USED BY THIS PROGRAM  
                  
0REFERENCES TO DEFINED SYMBOLS      
         12    LDQ    16
         11   DONE     6
         15   HERE    13
          3  BEGIN    10
          2  XMAX1     0
                  
0 NO ERROR IN ABOVE ASSEMBLY. 




  XMIN   BCD 05/29/67 0010.9     438         00000    
1            FAP                                                                                 PAGE 1     
                  
                              *XMIN1         FLOATING POINT ARGUEMENT,FIXED POINT FUNCTION
                              *              FINDING THE MINIMUM VALUE  
                              *              MAD CALLING SEQUENCE EXECUTE XMIN1.(ARG1,...ARGN)  
                              *              WHERE N IS ANY NUMBER
                       00002         ENTRY   XMIN1    
                  
            LINKAGE DIRECTOR  
      00000  000000000000     
      00001  674431450160     
                  
      00002  0774 00 1 77777  XMIN1  AXT     -1,1     
      00003  0500 00 4 00001  BEGIN  CLA     1,4
      00004 -0320 00 0 00030         ANA     =O777777700000 
      00005  0402 00 0 00027         SUB     =O300000000000 
      00006 -0100 00 0 00011         TNZ     DONE     
      00007  1 77777 4 00010         TXI     *+1,4,-1 
      00010  1 00001 1 00003         TXI     BEGIN,1,1
      00011  0500 60 4 00000  DONE   CLA*    0,4
      00012  0560 60 4 77777  LDQ    LDQ*    -1,4     
      00013  0040 00 0 00015         TLQ     *+2            MQ LOW
      00014  0020 00 0 00016         TRA     HERE           MQ HIGH     
      00015  0131 00 0 00000         XCA  
      00016  1 00001 4 00017  HERE   TXI     *+1,4,1  
      00017  2 00001 1 00012         TIX     LDQ,1,1  
      00020 -0300 00 0 00026         UFA     =O233000000000 
      00021  0765 00 0 00000         LRS     0  
      00022 -0320 00 0 00025         ANA     =O377777 
      00023  0763 00 0 00000         LLS     0  
      00024  0020 00 4 00001         TRA     1,4
                                     END  
                  
        LITERALS  
      00025  000000377777     
      00026  233000000000     
      00027  300000000000     
      00030  777777700000     
1            FAP                                                                                 PAGE 1     
                        POST PROCESSOR ASSEMBLY DATA  
                  
         31 IS THE FIRST LOCATION NOT USED BY THIS PROGRAM  
                  
0REFERENCES TO DEFINED SYMBOLS      
         12    LDQ    17
         11   DONE     6
         16   HERE    14
          3  BEGIN    10
          2  XMIN1     0
                  
0 NO ERROR IN ABOVE ASSEMBLY. 




  XMOD   BCD 05/29/67 0010.9     280         00000    
1            FAP                                                                                 PAGE 1     
                  
                              *XMOD          REMAINDERING ARG1(MOD ARG2)
                              *              CALLING SEQUENCE TSX XMOD,4
                              *                            TXH ARG1(FIXED)    
                              *                            TXH ARG2(FIXED)    
                              *                            3,4 RETURN   
                              *              FUNCTION FIXED 
                       00002         ENTRY   XMOD     
                  
            LINKAGE DIRECTOR  
      00000  000000000000     
      00001  674446246060     
                  
      00002  0760 00 0 00000  XMOD   CLM  
      00003  0560 60 4 00001         LDQ*    1,4
 A    00004  0763 00 0 00000         LLS                   SIGN OF MQ TO AC   
      00005  0221 60 4 00002         DVP*    2,4
      00006  0020 00 4 00003         TRA     3,4
                                                           FUNCTION IN ARITHMETIC AC FIXED
                                     END  
1            FAP                                                                                 PAGE 1     
                        POST PROCESSOR ASSEMBLY DATA  
                  
          7 IS THE FIRST LOCATION NOT USED BY THIS PROGRAM  
                  
0REFERENCES TO DEFINED SYMBOLS      
          2   XMOD     0
                  
0 NO ERROR IN ABOVE ASSEMBLY. 




  ZEL0   BCD 05/29/67 0010.9     353         00000    
1            FAP                                                                                 PAGE 1     
                  
                              *      ZEL     FILLS OUT LEADING BLANKS WITH ZEROS    
                  
                  
  BINARY CARD NO. ZEL00000    
                       00002         ENTRY   ZEL
                  
                  
                  
            LINKAGE DIRECTOR  
                  
  BINARY CARD NO. ZEL00001    
      00000  000000000000     
      00001  712543606060     
                  
                       00002  ZEL    SYN     *  
                       00000  X4     SYN     *-2
      00002 -0634 00 4 00000         SXD     X4,4     
      00003  0560 60 4 00001         LDQ*    1,4
      00004  0774 00 4 00044         AXT     36,4     
      00005 -0754 00 0 00000  A      ZAC  
      00006 -0763 00 0 00006         LGL     6  
      00007  0100 00 0 00012         TZE     B  
      00010 -0340 00 0 00017         LAS     =H00000  
      00011  0020 00 0 00013         TRA     *+2
      00012  2 00006 4 00005  B      TIX     A,4,6    
      00013 -0765 00 4 00052         LGR     42,4     
      00014  0131 00 0 00000         XCA  
      00015 -0534 00 4 00000         LXD     X4,4     
      00016  0020 00 4 00002         TRA     2,4
                                     END  
                  
        LITERALS  
      00017  000000000060     
1            FAP                                                                                 PAGE 1     
                        POST PROCESSOR ASSEMBLY DATA  
                  
         20 IS THE FIRST LOCATION NOT USED BY THIS PROGRAM  
                  
0REFERENCES TO DEFINED SYMBOLS      
          5      A    12
         12      B     7
          0     X4     2,   15
          2    ZEL     0,    2
                  
0 NO ERROR IN ABOVE ASSEMBLY. 




  XDTR   BCD 05/29/67 0137.3     829         00000    
1     MAD PROGRAM LISTING ... ... ...                 FILE    XDTR   MAD            05/29/67    0135.8
-                 
                 ..INTERFACE FOR MAD OR MADTRN CALLS TO XDETRM                                         LM00001    
                  EXTERNAL FUNCTION (ARG1, ARG2, ARG3, ARG4)                                      *001 LM00002    
                  NORMAL MODE IS INTEGER                                                          *002 LM00003    
                  FLOATING POINT ARG3, ARG4                                                       *003 LM00004    
                  ENTRY TO XDTRM.                                                                 *004 LM00005    
                 ..VALUE OF DETERMINANT INVARIANT UNDER TRANSPOSITION                                  LM00006    
                  FARG1 = FINT.(ARG1)                                                             *005 LM00007    
                  FARG2 = FINT.(ARG2)                                                             *006 LM00008    
                  EXECUTE DETCS.(FARG1, FARG2, ARG3, ARG4, FM)                                    *007 LM00009    
                  M =   MINT.(FM)                                                                 *008 LM00010    
                  FUNCTION RETURN M                                                               *009 LM00011    
                  END   OF FUNCTION                                                               *010 LM00012    
1MAD PROGRAM,TYPE NOV 1963      (ALL NUMBERS ARE OCTAL)     
0TOTAL LOCATIONS   00062 TRANSFER VECTOR LENGTH  00004 PROGRAM BEGINS    00013
0 PROGRAM IS AN EXTERNAL FUNCTION.   THE FOLLOWING ARE ENTRIES    
      XDTRM  00014   0                                                                                                  
0VARIABLE STORAGE (A=ARRAY,C=COMMON,E=ERASABLE,DIGIT=MODE)  
      FARG1  00005   1        FARG2  00006   1        FM     00007   1        M      00010   1                          
0FUNCTION DICTIONARY    
      DETCS  00000   1        EXIT   00001   1        FINT   00002   1        MINT   00003   1                          
0ABSOLUTE CONSTANTS     
 00011 +000000000001     00012 +233000000000                                                                            
0PROGRAM    
                 EXTERNAL FUNCTION (ARG1, ARG2, ARG3, ARG4)                         001  LM00002
                 NORMAL MODE IS INTEGER                                             002  LM00003
                 FLOATING POINT ARG3, ARG4                                          003  LM00004
                 ENTRY TO XDTRM.                                                    004  LM00005
 00013 TRA +0 02000 0 00016    00014 SXA +0 63400 2 00040    00015 TSX +0 07400 2 00040                                 
                 FARG1 = FINT.(ARG1)                                                005  LM00007
 00016 TSX +0 07400 4 00002    00017 TXH +3 00000 0 00024    00020 STO +0 60100 0 00005                                 
                 FARG2 = FINT.(ARG2)                                                006  LM00008
 00021 TSX +0 07400 4 00002    00022 TXH +3 00000 0 00024    00023 STO +0 60100 0 00006                                 
                 EXECUTE DETCS.(FARG1, FARG2, ARG3, ARG4, FM)                       007  LM00009
 00024 TSX +0 07400 4 00000    00025 TXH +3 00000 0 00005    00026 TXH +3 00000 0 00006    00027 TXH +3 00000 0 00024   
 00030 TXH +3 00000 0 00024    00031 TXH +3 00000 0 00007                                                               
                 M =   MINT.(FM)                                                    008  LM00010
 00032 TSX +0 07400 4 00003    00033 TXH +3 00000 0 00007    00034 STO +0 60100 0 00010                                 
                 FUNCTION RETURN M                                                  009  LM00011
 00035 CLA +0 50000 0 00010    00036 TRA +0 02000 0 00054                                                               
                 END   OF FUNCTION                                                  010  LM00012
 00037 TSX +0 07400 4 00001    00040 TXH +3 00000 0 00000    00041 SXD -0 63400 1 00040    00042 SXA +0 63400 4 00054   
 00043 CLA +0 50000 4 00001    00044 STO +0 60100 0 00017    00045 CLA +0 50000 4 00002    00046 STO +0 60100 0 00022   
 00047 CLA +0 50000 4 00003    00050 STO +0 60100 0 00027    00051 CLA +0 50000 4 00004    00052 STO +0 60100 0 00030   
 00053 TRA +0 02000 2 00001    00054 AXT +0 77400 4 00000    00055 LXA +0 53400 2 00040    00056 LXD -0 53400 1 00040   
 00057 TRA +0 02000 4 00001                                                                                             
